__gmon_start__
_ITM_deregisterTMCloneTable
_ITM_registerTMCloneTable
__cxa_finalize
GLIBC_2.4
libc.so.6
_ZN13PageComponent13GetStaticDataERN4CTPP3CDTERKS1_
_ZN13PageComponent14GetDynamicDataERN4CTPP3CDTERKS1_
_ZN13PageComponent11GetFormDataERN4CTPP3CDTERKS1_
_ZN13PageComponent20GetAccessControlDataERN4CTPP3CDTERKS1_
_ZN13PageComponent16ValidateFormDataERKN4CTPP3CDTERS1_
_ZN13PageComponent17GetCustomResponseERiRSt6vectorISt4pairINSt7__cxx1112basic_stringIcSt11char_traitsIcESaIcEEES8_ESaIS9_EERS8_
_ZN13PageComponent9StoreDataERKN4CTPP3CDTERS1_
ReleasePageComponent
_ZNSt7__cxx1115basic_stringbufIcSt11char_traitsIcESaIcEED2Ev
GLIBCXX_3.4
libstdc++.so.6
_ZNSt6localeD1Ev
_ZTVNSt7__cxx1115basic_stringbufIcSt11char_traitsIcESaIcEEE
GLIBCXX_3.4.21
_ZTVSt15basic_streambufIcSt11char_traitsIcEE
_ZNSt7__cxx1115basic_stringbufIcSt11char_traitsIcESaIcEED1Ev
_ZN4Util7ConvertIiNSt7__cxx1112basic_stringIcSt11char_traitsIcESaIcEEEEEiRKT0_RT_
_ZNSt8ios_baseC2Ev
_ZNSt9basic_iosIcSt11char_traitsIcEE4initEPSt15basic_streambufIcS1_E
_ZNSt6localeC1Ev
_ZSt16__ostream_insertIcSt11char_traitsIcEERSt13basic_ostreamIT_T0_ES6_PKS3_i
GLIBCXX_3.4.9
_ZNSirsERi
_ZNSt8ios_baseD2Ev
_ZNSt7__cxx1118basic_stringstreamIcSt11char_traitsIcESaIcEED1Ev
__cxa_end_cleanup
CXXABI_1.3
_ZTVSt9basic_iosIcSt11char_traitsIcEE
_ZTTNSt7__cxx1118basic_stringstreamIcSt11char_traitsIcESaIcEEE
_ZTVNSt7__cxx1118basic_stringstreamIcSt11char_traitsIcESaIcEEE
__gxx_personality_v0
_Z15CheckPortRangesiiiNSt7__cxx1112basic_stringIcSt11char_traitsIcESaIcEEEiS4_S4_S4_S4_
mifi_dbg_get_level_name
mifi_dbg_log
mifi_dbg_syslog
_ZNSt7__cxx1115basic_stringbufIcSt11char_traitsIcESaIcEED0Ev
CXXABI_1.3.9
_ZNSt6vectorIP14RouterPortInfoSaIS1_EEaSERKS3_
_ZSt17__throw_bad_allocv
__aeabi_unwind_cpp_pr0
libgcc_s.so.1
_ZN4Util7ConvertINSt7__cxx1112basic_stringIcSt11char_traitsIcESaIcEEEiEEiRKT0_RT_
_ZNSolsEi
_ZStrsIcSt11char_traitsIcESaIcEERSt13basic_istreamIT_T0_ES7_RNSt7__cxx1112basic_stringIS4_S5_T1_EE
_ZNSt8_Rb_treeINSt7__cxx1112basic_stringIcSt11char_traitsIcESaIcEEESt4pairIKS5_bESt10_Select1stIS8_ESt4lessIS5_ESaIS8_EE8_M_eraseEPSt13_Rb_tree_nodeIS8_E
_ZN13PageComponentD2Ev
_ZN4CTPP3CDTD1Ev
_ZTV13PageComponent
_ZN13PageComponentD1Ev
_ZN13PageComponentD0Ev
_ZNSt8_Rb_treeIiSt4pairIKi29portForwardingDependencyMap_tESt10_Select1stIS3_ESt4lessIiESaIS3_EE8_M_eraseEPSt13_Rb_tree_nodeIS3_E
_ZN11PortForwardD2Ev
_ZTV11PortForward
_ZN11PortForwardD1Ev
_ZN11PortForwardD0Ev
_ZNSt6vectorIP14RouterPortInfoSaIS1_EE17_M_realloc_insertIJRKS1_EEEvN9__gnu_cxx17__normal_iteratorIPS1_S3_EEDpOT_
_ZNSt6vectorIP14RouterPortInfoSaIS1_EE12emplace_backIJS1_EEEvDpOT_
_ZNSt8_Rb_treeIiSt4pairIKi29portForwardingDependencyMap_tESt10_Select1stIS3_ESt4lessIiESaIS3_EE14_M_insert_nodeEPSt18_Rb_tree_node_baseSB_PSt13_Rb_tree_nodeIS3_E
_ZSt29_Rb_tree_insert_and_rebalancebPSt18_Rb_tree_node_baseS0_RS_
_ZNSt7__cxx1112basic_stringIcSt11char_traitsIcESaIcEE12_M_constructIPKcEEvT_S8_St20forward_iterator_tag
_ZNSt7__cxx1112basic_stringIcSt11char_traitsIcESaIcEE9_M_createERjj
_ZSt19__throw_logic_errorPKc
_ZN11PortForwardC2Ev
_ZN4CTPP3CDTC1ERKNS0_8eValTypeE
_ZN11PortForwardC1Ev
GetPageComponent
_Z26CheckForSameSubnetAndLanIP13ip4_address_tNSt7__cxx1112basic_stringIcSt11char_traitsIcESaIcEEE
sys_getLANSettings
inet_pton
_Z7isLanIpPKcS0_
__aeabi_unwind_cpp_pr1
_ZN11PortForward20GetAccessControlDataERN4CTPP3CDTERKS1_
_ZN12AclComponent21GetAppLevelAclSettingEPcPiS1_
_ZN4CTPP3CDTixERKNSt7__cxx1112basic_stringIcSt11char_traitsIcESaIcEEE
_ZN4CTPP3CDTaSEi
_ZN4CTPP3CDTaSERKS0_
_ZNK4CTPP3CDT6GetIntEv
_ZN4CTPP3CDTaSEx
_ZN11PortForward13GetStaticDataERN4CTPP3CDTERKS1_
sys_getVpnConnectionStats
sys_getPortForwardingEnabled
sys_getDMZEnabled
_ZNSt7__cxx1112basic_stringIcSt11char_traitsIcESaIcEE12_M_constructIPcEEvT_S7_St20forward_iterator_tag
_ZNSt6vectorI14RouterPortInfoSaIS0_EE17_M_realloc_insertIJRKS0_EEEvN9__gnu_cxx17__normal_iteratorIPS0_S2_EEDpOT_
__cxa_begin_catch
__cxa_rethrow
__cxa_end_catch
_ZStplIcSt11char_traitsIcESaIcEENSt7__cxx1112basic_stringIT_T0_T1_EERKS8_SA_
_ZNSt7__cxx1112basic_stringIcSt11char_traitsIcESaIcEE9_M_appendEPKcj
_ZStplIcSt11char_traitsIcESaIcEENSt7__cxx1112basic_stringIT_T0_T1_EERKS8_PKS5_
_ZSt20__throw_length_errorPKc
_ZN11PortForward17CheckAppConflictsEiRN4CTPP3CDTES2_b
_ZN4CTPP3CDTixEj
_ZNK4CTPP3CDT9GetStringB5cxx11EPKc
_ZNKSt7__cxx1112basic_stringIcSt11char_traitsIcESaIcEE7compareEPKc
_ZNSt7__cxx1112basic_stringIcSt11char_traitsIcESaIcEEaSEOS4_
_ZNK4CTPP3CDT4SizeEv
_ZNKSt7__cxx1112basic_stringIcSt11char_traitsIcESaIcEE4findEPKcjj
dgettext
_ZN4CTPP3CDTaSEPKc
_ZSt18_Rb_tree_incrementPSt18_Rb_tree_node_base
_ZNSt7__cxx1112basic_stringIcSt11char_traitsIcESaIcEE10_M_replaceEjjPKcj
_ZNK14RouterPortInfo12GetStartPortEv
_ZNSt7__cxx1118basic_stringstreamIcSt11char_traitsIcESaIcEEC1ESt13_Ios_Openmode
_ZNSo9_M_insertIxEERSoT_
_ZNK14RouterPortInfo10GetEndPortEv
_ZNK14RouterPortInfoeqERS_
_ZNK14RouterPortInfo11GetProtocolEv
_ZNK14RouterPortInfo12GetIPAddressB5cxx11Ev
_ZNKSt7__cxx1112basic_stringIcSt11char_traitsIcESaIcEE7compareERKS4_
_ZN4CTPP3CDTaSERKNSt7__cxx1112basic_stringIcSt11char_traitsIcESaIcEEE
_Z18CheckForBlankInputNSt7__cxx1112basic_stringIcSt11char_traitsIcESaIcEEES4_iS4_RN4CTPP3CDTES7_
_Z12ValidatePortNSt7__cxx1112basic_stringIcSt11char_traitsIcESaIcEEES4_RiS5_S4_S4_
_ZNSt7__cxx1112basic_stringIcSt11char_traitsIcESaIcEE9_M_assignERKS4_
_Z13ValidatePortsNSt7__cxx1112basic_stringIcSt11char_traitsIcESaIcEEES4_S4_S4_iRN4CTPP3CDTES4_
_ZN11PortForward16ValidateFormDataERKN4CTPP3CDTERS1_
_ZN4CTPP3CDTC1ERKS0_
_ZNKSt7__cxx1112basic_stringIcSt11char_traitsIcESaIcEE17find_first_not_ofEPKcjj
_ZNSt7__cxx1112basic_stringIcSt11char_traitsIcESaIcEE8_M_eraseEjj
_ZNKSt7__cxx1112basic_stringIcSt11char_traitsIcESaIcEE16find_last_not_ofEPKcjj
_ZNK4CTPP3CDT6ExistsERKNSt7__cxx1112basic_stringIcSt11char_traitsIcESaIcEEE
_Z22isNetworkOrBroadcastIpPKc
u8_nextchar
sys_getPublicAccessList
_ZSt24__throw_out_of_range_fmtPKcz
GLIBCXX_3.4.20
__cxa_throw_bad_array_new_length
CXXABI_1.3.8
_ZNSt8_Rb_treeIiSt4pairIKi29portForwardingDependencyMap_tESt10_Select1stIS3_ESt4lessIiESaIS3_EE24_M_get_insert_unique_posERS1_
_ZSt18_Rb_tree_decrementPSt18_Rb_tree_node_base
_ZNSt8_Rb_treeIiSt4pairIKi29portForwardingDependencyMap_tESt10_Select1stIS3_ESt4lessIiESaIS3_EE29_M_get_insert_hint_unique_posESt23_Rb_tree_const_iteratorIS3_ERS1_
_ZNSt8_Rb_treeIiSt4pairIKi29portForwardingDependencyMap_tESt10_Select1stIS3_ESt4lessIiESaIS3_EE22_M_emplace_hint_uniqueIJRKSt21piecewise_construct_tSt5tupleIJOiEESE_IJEEEEESt17_Rb_tree_iteratorIS3_ESt23_Rb_tree_const_iteratorIS3_EDpOT_
_ZNSt3mapIi29portForwardingDependencyMap_tSt4lessIiESaISt4pairIKiS0_EEEixEOi
_ZN11PortForward9StoreDataERKN4CTPP3CDTERS1_
sys_setPortForwardingEnabled
_ZNK14RouterPortInfo10GetEnabledEv
_ZN14RouterPortInfo10SetEnabledERKb
_ZN14RouterPortInfo12SetIPAddressERKNSt7__cxx1112basic_stringIcSt11char_traitsIcESaIcEEE
_ZN14RouterPortInfo11SetInstanceERKi
_ZN4CTPP3CDT8ToStringB5cxx11EPKc
_ZN14RouterPortInfoC1ERN4CTPP3CDTERKNSt7__cxx1112basic_stringIcSt11char_traitsIcESaIcEEE
_ZN14RouterPortInfo8ToStringB5cxx11Ev
_ZN4CTPP3CDT5EraseERKNSt7__cxx1112basic_stringIcSt11char_traitsIcESaIcEEE
_ZN14RouterPortInfo14ToSysRouterAppEv
sys_setPortForwardingApplicationList
_ZN11PortForward11SetDefaultsEv
_ZN14RouterPortInfoC1ERKNSt7__cxx1112basic_stringIcSt11char_traitsIcESaIcEEERKiS7_S9_S9_S9_S9_RKb
_ZNSt8_Rb_treeIiSt4pairIKi29portForwardingDependencyMap_tESt10_Select1stIS3_ESt4lessIiESaIS3_EE22_M_emplace_hint_uniqueIJRKSt21piecewise_construct_tSt5tupleIJRS1_EESE_IJEEEEESt17_Rb_tree_iteratorIS3_ESt23_Rb_tree_const_iteratorIS3_EDpOT_
_ZNSt3mapIi29portForwardingDependencyMap_tSt4lessIiESaISt4pairIKiS0_EEEixERS4_
_ZN11PortForward11GetFormDataERN4CTPP3CDTERKS1_
sys_getPortForwardingApplicationList
sys_getIPPassthroughEnabled
_ZN14RouterPortInfo17AddToTemplateListERN4CTPP3CDTEiRKNSt7__cxx1112basic_stringIcSt11char_traitsIcESaIcEEEb
_ZN14RouterPortInfoC1EP16sys_router_app_t
_ZN14RouterPortInfoaSERK16sys_router_app_t
_ZNSt8ios_base4InitC1Ev
__aeabi_atexit
CXXABI_ARM_1.3.3
_ZNSt8ios_base4InitD1Ev
_ZNSt7__cxx1112basic_stringIcSt11char_traitsIcESaIcEED1Ev
_ZTS13PageComponent
_ZTI13PageComponent
_ZTVN10__cxxabiv117__class_type_infoE
_ZTS11PortForward
_ZTI11PortForward
_ZTVN10__cxxabiv120__si_class_type_infoE
_ZN14RouterPortInfoC2EP16sys_router_app_t
_ZN14RouterPortInfoC2ERKNSt7__cxx1112basic_stringIcSt11char_traitsIcESaIcEEERKiS7_S9_S9_S9_S9_RKb
_ZNKSt7__cxx1112basic_stringIcSt11char_traitsIcESaIcEE4copyEPcjj
_ZN14RouterPortInfo7SetNameERKNSt7__cxx1112basic_stringIcSt11char_traitsIcESaIcEEE
_ZNK14RouterPortInfo11GetInstanceEv
_ZN14RouterPortInfo12SetStartPortERKi
_ZN14RouterPortInfo10SetEndPortERKi
_ZN14RouterPortInfo11SetProtocolERKi
_ZNK14RouterPortInfoneERS_
_ZN14RouterPortInfo14SetPortMapTypeERKi
_ZNK14RouterPortInfo14GetPortMapTypeEv
_ZN14RouterPortInfoC2ERN4CTPP3CDTERKNSt7__cxx1112basic_stringIcSt11char_traitsIcESaIcEEE
_ZNK14RouterPortInfo7GetNameB5cxx11Ev
_ZN12AclComponent19PopulateAclSettingsERN4CTPP3CDTE
sys_getWDCPCarrierEnabled
sys_getLongshipAgentCarrierEnabled
sys_getUIAppDisplayEnabled
sys_getUIAppWriteEnabled
_ZNSt8_Rb_treeINSt7__cxx1112basic_stringIcSt11char_traitsIcESaIcEEESt4pairIKS5_bESt10_Select1stIS8_ESt4lessIS5_ESaIS8_EE14_M_insert_nodeEPSt18_Rb_tree_node_baseSG_PSt13_Rb_tree_nodeIS8_E
_ZNSt8_Rb_treeINSt7__cxx1112basic_stringIcSt11char_traitsIcESaIcEEESt4pairIKS5_bESt10_Select1stIS8_ESt4lessIS5_ESaIS8_EE24_M_get_insert_unique_posERS7_
_ZNSt8_Rb_treeINSt7__cxx1112basic_stringIcSt11char_traitsIcESaIcEEESt4pairIKS5_bESt10_Select1stIS8_ESt4lessIS5_ESaIS8_EE29_M_get_insert_hint_unique_posESt23_Rb_tree_const_iteratorIS8_ERS7_
_ZNSt8_Rb_treeINSt7__cxx1112basic_stringIcSt11char_traitsIcESaIcEEESt4pairIKS5_bESt10_Select1stIS8_ESt4lessIS5_ESaIS8_EE22_M_emplace_hint_uniqueIJRKSt21piecewise_construct_tSt5tupleIJRS7_EESJ_IJEEEEESt17_Rb_tree_iteratorIS8_ESt23_Rb_tree_const_iteratorIS8_EDpOT_
_ZN12AclComponent14GetFieldStatusERKNSt7__cxx1112basic_stringIcSt11char_traitsIcESaIcEEE
_ZN12AclComponent20GenerateFieldACLDataERN4CTPP3CDTENSt7__cxx1112basic_stringIcSt11char_traitsIcESaIcEEEbb
sys_getUIFieldShowEnabled
sys_getUIFieldLockEnabled
_ZN12AclComponent17LoadOneAclSettingERKNSt7__cxx1112basic_stringIcSt11char_traitsIcESaIcEEES7_
_ZN13PageComponent7SetDataERN4CTPP3CDTERKNSt7__cxx1112basic_stringIcSt11char_traitsIcESaIcEEESA_
_ZN13PageComponent7SetDataERN4CTPP3CDTERKNSt7__cxx1112basic_stringIcSt11char_traitsIcESaIcEEEi
_ZN13PageComponent7SetDataERN4CTPP3CDTERKNSt7__cxx1112basic_stringIcSt11char_traitsIcESaIcEEEb
_ZN13PageComponent13nativeCheckerEiNSt7__cxx1112basic_stringIcSt11char_traitsIcESaIcEEES5_
_ZN13PageComponent6IsTrueERKNSt7__cxx1112basic_stringIcSt11char_traitsIcESaIcEEEb
_ZN13PageComponent21ConvertUnitToLanguageENSt7__cxx1112basic_stringIcSt11char_traitsIcESaIcEEE
_ZN13PageComponent7SetDataERN4CTPP3CDTERKNSt7__cxx1112basic_stringIcSt11char_traitsIcESaIcEEEPc
_ZNK13PageComponent14GetExternalURIB5cxx11EPKc
webui_get_external_uri_data
_ZNK13PageComponent6GetURIB5cxx11EPKc
webui_get_uri_data
_ZN13PageComponent17GetConfigurationsEv
webui_get_common_configurations
webui_get_app_configurations
_ZN13PageComponent11GetFeaturesEv
webui_get_common_features
webui_get_app_features
_ZN13PageComponent4InitENSt7__cxx1112basic_stringIcSt11char_traitsIcESaIcEEE
__bss_start
libmificommon.so
libmifi_debug.so
libxmldata_api.so
libxml2.so.2
libz.so.1
libmifimsgbus.so
libwatchdog_api.so
libmifi_config.so
libsettings_api.so
libdmdb_api.so
libqmi_client_qmux.so.1
libqmi.so.1
libqmiidl.so.1
libqmiservices.so.1
libdiag.so.1
libgthread-2.0.so.0
libglib-2.0.so.0
libqmi_cci.so.1
libqmi_csi.so.1
libqmi_sap.so.1
libqmi_common_so.so.1
libqmi_encdec.so.1
libnwqmi.so
libmal_qct.so
libdl.so.2
libpthread.so.0
librt.so.1
libmifi_events.so
libdsm_api.so
libacm.so
libgpio.so
libpowersave_api.so
libmodem2_api.so
libgps_api.so
libfactory_reset_api.so
libsms_api.so
libwifi_api.so
libm.so.6
libccm2_api.so
librouter2_api.so
libfile_sharing_api.so
libfota_api.so
libled_api.so
libbuzzer_api.so
libans_api.so
libusb_api.so
libemd_api.so
libsensor_api.so
libvpn_api.so
libbluetooth_api.so
libsim_mgr_api.so
libwan_mgr_api.so
libcbsd_api.so
libsysintclient.so
libwebui_api.so
libdevui_api.so
libdua_api.so
libcc_api.so
libcgicc.so.3
libctpp2.so.2
libuisupport.so
libiconv.so.2
libdeviceagent_api.so
libtr069_api.so
H	KxD	J{D
13PageComponent
bool CheckPortRanges(int, int, int, std::__cxx11::string, int, std::__cxx11::string, std::__cxx11::string, std::__cxx11::string, std::__cxx11::string)
PortForward::PortForward()
bool CheckForSameSubnetAndLanIP(ip4_address_t, std::__cxx11::string)
virtual void PortForward::GetAccessControlData(CTPP::CDT&, const CTPP::CDT&)
virtual PageError PortForward::GetStaticData(CTPP::CDT&, const CTPP::CDT&)
int PortForward::CheckAppConflicts(int, CTPP::CDT&, CTPP::CDT&, bool)
int CheckForBlankInput(std::__cxx11::string, std::__cxx11::string, int, std::__cxx11::string, CTPP::CDT&, CTPP::CDT&)
std::__cxx11::string ValidatePort(std::__cxx11::string, std::__cxx11::string, int&, int&, std::__cxx11::string, std::__cxx11::string)
int ValidatePorts(std::__cxx11::string, std::__cxx11::string, std::__cxx11::string, std::__cxx11::string, int, CTPP::CDT&, std::__cxx11::string)
virtual int PortForward::ValidateFormData(const CTPP::CDT&, CTPP::CDT&)
virtual PageError PortForward::StoreData(const CTPP::CDT&, CTPP::CDT&)
virtual void PortForward::SetDefaults()
virtual PageError PortForward::GetFormData(CTPP::CDT&, const CTPP::CDT&)
11PortForward
basic_string::_M_construct null not valid
basic_string::append
[%s]:[%s] - %s - BEGIN
[%s]:[%s] - %s -  dynamicStartPort is %s, intDynamicStartPort is %d
[%s]:[%s] - %s -  dynamicEndPort is %s, intDynamicEndPort is %d
Translate
[%s]:[%s] - %s - current port number %d and dynamic start port %d are equal
[%s]:[%s] - %s - END returning 1
[%s]:[%s] - %s - current start port %d  and current end port port %d are not with in range
[%s]:[%s] - %s - port range conflict detected
[%s]:[%s] - %s - END returning 0
[%s]:[%s] - %s -  dynamicAppEnable is %s, boolDynamicAppEnable is %d
[%s]:[%s] - %s - END
[%s]:[%s] - %s - sys_getLANSettings failed to read lan settings, with error code: %d, try sysintcli getLANSettings from command line
[%s]:[%s] - %s - sys_getLANSettings success, MiFi IP Address is %s and MiFi Subnet Mask is %s
[%s]:[%s] - %s - MiFi Subnet: %d, User Subnet: %d
[%s]:[%s] - %s - END returning %d
PortForwarding
isHidden
isLocked
[%s]:[%s] - %s - isHidden: %d, isLocked: %d
showAddCustomAppButton
ShowAddCustomAppButton
ShowPortForwardStandardApps
ShowDefaultAppSNMP
showPortType
ShowPortType
showTCPUDP
ShowTCPUDP
showSinglePortType
ShowSinglePortType
showTranslatePortType
ShowTranslatePortType
showIntroductoryText
ShowIntroductoryText
showPortForwardApplicationsSubHeading
ShowPortForwardApplicationsSubHeading
showHeaderText
ShowHeaderText
checkRemoteAdmin
CheckRemoteAdmin
[%s]:[%s] - %s - END returning %d, since page is hidden
vpnEnabled
[%s]:[%s] - %s - sys_getPortForwardingEnabled failed to read port forward enable value, with error code: %d, try sysintcli getPortForwardingEnabled from command line
[%s]:[%s] - %s - sys_getPortForwardingEnabled success, Port forward enable is %d 
[%s]:[%s] - %s - sys_getDMZEnabled failed with error code: %d, try sysintcli getDMZEnabled from command line.
[%s]:[%s] - %s - sys_getDMZEnabled success, DmzActive: %d
PortForwardingEnabled
dmzActive
[%s]:[%s] - %s - BEGIN customIndex[%d]
routerPortForwardInfoCustomName
routerPortForwardInfoCustomStartPort
routerPortForwardInfoCustomIpAddress
routerPortForwardInfoCustomEndPort
routerPortForwardInfoCustomEnabled
routerPortForwardInfoCustomProtocol
routerPortForwardInfoCustomPortMapType
routerPortForwardInfoDefaultEnabled
routerPortForwardInfoDefaultStartPort
routerPortForwardInfoDefaultEndPort
routerPortForwardInfoDefaultIpAddress
[%s]:[%s] - %s - END returning 0, since current app entries are invalid, checkPorts: %d
[%s]:[%s] - %s -  Custom List Size = [%d], Current Start Port = [%d], Current End Port = [%d], Current Port Protocol= [%s], Current Port Map Type= [%s] 
[%s]:[%s] - %s -  Custom application name is %s and Protocol is %s 
customAppNameIndexError
adv_port_forward_duplicate_name_error_text
[%s]:[%s] - %s - custom appname %s is duplicate
[%s]:[%s] - %s END returning 1
[%s]:[%s] - %s - merging custom-app[%s] with previous custom-app[%s]
customAppBeginPortIndexError
adv_port_forward_ext_port_range_conflict_error_text
adv_port_forward_custom_port_range_conflict_error_text
customAppEndPortIndexError
[%s]:[%s] - %s -  Port forwarding Default List Size = %d
[%s]:[%s] - %s - check app with dependency ports of dependencyMapkey[%d]
[%s]:[%s] - %s - app[%d] matches with dependency ports of dependencyMapkey[%d]
[%s]:[%s] - %s - i[%d] enable[%s]
[%s]:[%s] - %s - dependency[%d] port is not enabled .. continue
[%s]:[%s] - %s - custIp[%s] matched with default-app-ip[%s]. Merge custom-app-entry with default. No error
[%s]:[%s] - %s - setting error to defaultPortList[%d]
routerPortForwardInfoDefaultStartPortError
adv_port_forward_default_port_range_conflict_error_text
[%s]:[%s] - %s - default list port conflict detected
[%s]:[%s] - %s - custom app name is empty
[%s]:[%s] - %s - Port number is empty
_port_error_text
[%s]:[%s] - %s - Port number %s contains alphabets
_non_numeric_
[%s]:[%s] - %s - Port number %s is used in remote admin
_port_used_in_remote_admin_error_text
[%s]:[%s] - %s - Port number %d is less than minimum value 1
_port_number_less_than_min_error_text
[%s]:[%s] - %s - Port number %d is greater than maximum value %d
_port_number_greater_than_max_error_text
[%s]:[%s] - %s - END returning %s
[%s]:[%s] - %s - start port %d and end port %d are same
_int_port_number_equal_to_end_port_number_error_text
[%s]:[%s] - %s -  start port %d is greater than end port %d
_start_port_greater_than_end_port_error_text
[%s]:[%s] - %s - port in %d to %d is used in remote admin
_port_range_used_in_remote_admin_error_text
[%s]:[%s] - %s END returning %d, since page is locked
portForwardEnable
[%s]:[%s] - %s - There is a POST of Toggle Switch and it is: %s
errorCount
[%s]:[%s] - %s - END returning %d, since this is POST of toggle switch no need validate remaining. 
[%s]:[%s] - %s - sys_sys_getPublicAccessList success to get clients IP list, need to allocate [%d] memory, sys_ret: %d
routerDefaultPortForwardList
routerPortForwardInfoDefaultEnabledCheckBox
routerPortForwardInfoDefaultIpAddressTextBox
routerPortForwardInfoDefaultInstanceHidden
[%s]:[%s] - %s -  Router Default PortForwardList size is: %d, routerDefaultPortForwardList.size: %d
routerPortForwardInfoDefaultInstance
basic_string::erase
%s: __pos (which is %zu) > this->size() (which is %zu)
[%s]:[%s] - %s - Default Ipaddress is empty, detected blank error
defaultAppIpAddressIndexError
adv_port_forward_blank_ip_address_error_text
[%s]:[%s] - %s - Cannot convert default Ipaddress %s, detected invalid error
adv_port_forward_invalid_ip_address_error_text
[%s]:[%s] - %s - validation for default user and mifi subnet failed 
adv_port_forward_invalid_subnet_ip_address_error_text
[%s]:[%s] - %s - Default Ipaddress doesn't end with network or broadcast ip.
[%s]:[%s] - %s -  User Doesnt want to include this app App: %s.
routerPortForwardInfoCustomInstance
[%s]:[%s] - %s -  User Posted custom App: %s.
[%s]:[%s] - %s - custom Ipaddress is empty, detected blank error
[%s]:[%s] - %s - custom Ipaddress is invalid, detected invalid error
[%s]:[%s] - %s - validation for custom user and mifi subnet failed
[%s]:[%s] - %s -custom Ipaddress doesn't end with network or broadcast ip.
adv_port_forward_blank_app_name_error_text
[%s]:[%s] - %s -custom app name contains non printable characters.
adv_port_forward_non_printable_name_error_text
adv_port_forward
[%s]:[%s] - %s - since custom app is empty, so app is deleted
[%s]:[%s] - %s -  Current Application Enable is %s
[%s]:[%s] - %s -  Post Data App is %s Enable is %s, start port is %s, end port is %s,port type is %s
[%s]:[%s] - %s -  Template Data App is %s Enable is %s, ipadress is %s, protocol is %s, port map type is %s, start port is %s, end port is %s
routerCustomPortForwardList
[%s]:[%s] - %s - port forward enable is %d
[%s]:[%s] - %s - sys_setPortForwardingEnabled failed to set port forward enable value, with error code: %d, try sysintcli setPortForwardingEnabled from command line
[%s]:[%s] - %s - sys_setPortForwardingEnabled success, port forward enable value: %d
[%s]:[%s] - %s - mDefaultPortForwardList size[%d] 
[%s]:[%s] - %s - enabled[%d] 
[%s]:[%s] - %s - disabled[%d] 
[%s]:[%s] - %s -   App with name %s selected for deletion.  No save needed.
[%s]:[%s] - %s - Check Ip Address pd[%s] vs map[%s].
[%s]:[%s] - %s - dependencyMapkey[%d]- ip(%s) matched
[%s]:[%s] - %s - dependency-port-info [[ %s ]]
[%s]:[%s] - %s - ports-matched with dependency-map, custom-app merged
[%s]:[%s] - %s - Check Ip Address custom[%s] vs default[%s].
[%s]:[%s] - %s - ports-matched with other-app, custom-app merged
[%s]:[%s] - %s -Port forward application list count is %d.
[%s]:[%s] - %s - sys_setPortForwardingApplicationList failed to set port forward list, with error code: %d. Try sysintcli setPortForwardingApplicationList from command line
Secure SMTP
Secure SMTP (SSMTP)
HTTP/HTTPS
POP3/POP3S
SMTP/Secure SMTP
portForwardDisplayStandardApps
[%s]:[%s] - %s - Port forward default port value is %d
[%s]:[%s] - %s - sys_getPortForwardingApplicationList success to get port forward application list, need to allocate [%d] memory, sys_ret: %d
[%s]:[%s] - %s - sys_getPortForwardingApplicationList success, Application List count is %d
[%s]:[%s] - %s - sys_getPortForwardingApplicationList failed to read port forward application list, with error code: %d, try sysintcli getPortForwardingApplicationList from command line
[%s]:[%s] - %s - check sys_port[%d] in default-list complete, found[%d]
[%s]:[%s] - %s - dependencyMapkey[%d]
[%s]:[%s] - %s - check sys_port[%d] in dependency-map complete, foundInDependencyMap[%d]
[%s]:[%s] - %s - enabling sys_port[%d] to default-list
[%s]:[%s] - %s - check sys_port[%d] in dependency-map, ip-address check
[%s]:[%s] - %s - deleting port[%s] from custom-list
[%s]:[%s] - %s - ip-address-match, dependency-count[%d] adding sys_port[%d] to custom-list
[%s]:[%s] - %s - ip-address-do-not-match adding sys_port[%d] to custom-list
[%s]:[%s] - %s - process-further-false adding sys_port[%d] to custom-list
routerPortForwardInfoDefault
routerPortForwardInfoDefaultName
routerPortForwardInfoCustom
[%s]:[%s] - %s - sys_getIPPassthroughEnabled success, IP Passthrough Enable is %d
isIpPassthroughActive
[%s]:[%s] - %s - Ip passthrough feature is not supported, IP Passthrough Enable is %d
[%s]:[%s] - %s - sys_getIPPassthroughEnabled failed to read IP Passthrough enable value,with error code: %d, try sysintcli getIPPassthroughEnabled from command line
/usr/share/locale
/etc/profile
/opt/nvtl/
/opt/nvtl/bin/
/opt/nvtl/etc/
/opt/nvtl/data/
_log_config.cfg
/sysconf/
ui_def_config.xml
ui_config.xml
acl_config.xml
restore_ace_defaults
webui_site_config.json
app_config.json
menu_layout.json
app.tmpl
/var/log/debug-logs.tgz
storelogs.sh
model_string.txt
gpsstatus
uinative
websupport
uisupport
<absent>
mifisess
gBaseAssetsPath
gHtmlLang
gLangDirection
gHttpStatusCode
gHttpStatusErrorMsg
gCssList
gSecureToken
gIsLoggedIn
gMenuLayout
gPostSuccess
gSiteTitle
gModelName
gHelpURL
gProductName
gProductNumber
gRedirectUrl
gIsSMSEnabled
gIsAdminSettingsEnabled
gIsDefaultPassword
gIsPromptChangePassword
gIsSMSLOCKED
gIsDeviceAgent
gIsMultiSimSupported
Ethernet
Initializing
Searching
Connecting
Connected
Disconnecting
Activation in progress
No Service
Unactivated
Account restricted (PCO 2)
Account restricted (PCO 2) Disconnected
Account out of credit (PCO 3)
Account not active (PCO 5)
CDMA 1XRTT
EVDO REV0
EVDO REVA
HSPA PLUS DC
EVDO REVB
EVDO EHRPD
Automatic
CDMA AUTO
LTE ONLY
1XRTT ONLY
EVDO ONLY
No MNS scan in progress
MNS scan in progress
MNS scan complete
Available
Forbidden
3G HSDPA
3G HSUPA
3G WCDMA
WPA2 PSK
WPA2 MIX
Not Supported
Not Found
Unlocked
PIN Locked
PUK Locked
SIM Error
SIM Restricted
SIM Locked
Activation Started
Activation Failed
Activated
Not Activated
AutolockOn
AutolockOff
CarrierDisabled
SdNotMounted
PrivacyAgreementNotAccepted
Disabled
critical
transient
AirplaneModeOn
AirplaneModeOff
LowBatteryOff
connected
disabled
DateFormatUSA
DateFormatEuropeDot
DateFormatEurope
DateFormatISO8601Order
TimeFormat12Hr
TimeFormat24Hr
Fahrenheit
ChargeOnly
Domestic
International
Downlink
UplinkDownlink
HomeTheater
GameSystem
E-Reader
MusicPlayer
Deactivated
ChargingSourceNone
ChargingSourceUSB
ChargingSourceAC
4G/3G/2G
UpdateNotAvailable
UpdateAvailable
UpdateDownloading
Mandatory
Optional
Notpresent
customAppNameIndex
customAppInstanceIndex
customAppPortMapIndex
customAppBeginPortIndex
customAppEndPortIndex
customAppPortTypeIndex
customAppEnabledIndex
customAppDeleteIndex
customAppIpAddressIndex
Instance = 
IP Address = 
Port Map Type = 
Protocol = 
Start Port = 
End Port = 
Enabled = 
Instance
IpAddress
PortMapType
Protocol
StartPort
[%s]:[%s] - %s - sys_getWDCPCarrierEnabled failed, returned error code %d. Try sysintcli getWDCPCarrierEnabled from command line.
[%s]:[%s] - %s sys_getLongshipAgentCarrierEnabled failed, returned error code %d. Try sysintcli getLongshipAgentCarrierEnabled from command line.
[%s]:[%s] - %s - sys_getUIAppDisplayEnabled failed, returned error code %d. Try sysintcli getUIAppDisplayEnabled from command line.
[%s]:[%s] - %s - sys_getUIAppWriteEnabled failed, returned error code %d. Try sysintcli getUIAppWriteEnabled from command line.
[%s]:[%s] - %s - App:%s, Hidden:%d, Locked:%d
[%s]:[%s] - %s - END
[%s]:[%s] - %s - BEGIN field[%s] featureSupport[%d] uiSupport[%d]
[%s]:[%s] - %s sys_getWDCPCarrierEnabled failed, returned error code %d. Try sysintcli getWDCPCarrierEnabled from command line.
[%s]:[%s] - %s sys_getUIFieldShowEnabled(%s) failed, returned error code %d. Try sysintcli getUIFieldShowEnabled from command line.
[%s]:[%s] - %s sys_getUIFieldLockEnabled(%s) failed, returned error code %d. Try sysintcli getUIFieldLockEnabled from command line.
[%s]:[%s] - %s - App:%s, Show:%d, Locked:%d
[%s]:[%s] - %s - END show[%d] locked[%d]
[%s]:[%s] - %s - Acl show status for [%s] is [%d]
[%s]:[%s] - %s - sys_getUIFieldShowEnabled failed, returned error code %d. Try sysintcli getUIFieldShowEnabled from command line.
[%s]:[%s] - %s - Acl locked status for [%s] is [%d]
[%s]:[%s] - %s - sys_getUIFieldLockEnabled failed, returned error code %d. Try sysintcli getUIFieldLockEnabled from command line.
HideOrLocked
[%s]:[%s] - %s- %s = "%s"
[%s]:[%s] - %s- %s = %d
[%s]:[%s] - %s - %s returned - %d
[%s]:[%s] - %s - couldn't convert %s to a boolean value, treating as %d
webui_app_bit_text
webui_app_kilobit_text
webui_app_megabit_text
webui_app_gigabit_text
webui_app_bytes_text
webui_app_kilobytes_text
webui_app_megabytes_text
webui_app_gigabytes_text
[%s]:[%s] - %s - Unknown Unit Type!  No conversion can be done for %s.
[%s]:[%s] - %s Friendly uri : %s for uri_id %s
[%s]:[%s] - %s webui_get_external_uri_data failed, returned error code %d. Try webui_cli get_external_uri_data from command line.
[%s]:[%s] - %s Friendly uri : %s for uri_id %s
[%s]:[%s] - %s webui_get_uri_data failed, returned error code %d. Try webui_cli get_uri_data from command line.
[%s]:[%s] - %s webui_get_common_configurations returned configurations_count: %d, allocate sufficient memory
[%s]:[%s] - [common] configuration name - [%s] value - [%s]
[%s]:[%s] - %s webui_get_common_configurations failed, returned error code %d. Try webui_cli get_common_configurations from command line.
[%s]:[%s] - %s webui_get_app_configurations returned configurations_count: %d, allocate sufficient memory
[%s]:[%s] - configuration name - [%s] value - [%s]
[%s]:[%s] - %s webui_get_app_configurations failed, returned error code %d. Try webui_cli get_app_configurations from command line.
[%s]:[%s] - %s webui_get_common_features returned features_count: %d, allocate sufficient memory
[%s]:[%s] - [common] feature name - [%s] value - [%d]
[%s]:[%s] - %s webui_get_common_features failed, returned error code %d. Try webui_cli get_common_features from command line.
[%s]:[%s] - %s webui_get_app_features returned features_count%d, allocate sufficient memory
[%s]:[%s] - feature name - [%s] value - [%d]
[%s]:[%s] - %s webui_get_app_features failed, returned error code %d. Try webui_cli get_app_features from command line.
[%s]:[%s] - %s Unable to read the app features, returned error code %d.
[%s]:[%s] - %s Unable to read the app configurations, returned error code %d.
void AclComponent::PopulateAclSettings(CTPP::CDT&)
void AclComponent::GetAppLevelAclSetting(char*, int*, int*)
bool AclComponent::GetFieldStatus(const string&)
void AclComponent::GenerateFieldACLData(CTPP::CDT&, std::__cxx11::string, bool, bool)
void AclComponent::LoadOneAclSetting(const string&, const string&)
static void PageComponent::SetData(CTPP::CDT&, const string&, const string&)
static void PageComponent::SetData(CTPP::CDT&, const string&, bool)
static PageError PageComponent::nativeChecker(int, std::__cxx11::string, std::__cxx11::string)
bool PageComponent::IsTrue(const string&, bool)
static std::__cxx11::string PageComponent::ConvertUnitToLanguage(std::__cxx11::string)
std::__cxx11::string PageComponent::GetExternalURI(const char*) const
std::__cxx11::string PageComponent::GetURI(const char*) const
int PageComponent::GetConfigurations()
int PageComponent::GetFeatures()
void PageComponent::Init(std::__cxx11::string)
gold 1.16
.shstrtab
.note.gnu.build-id
.gnu.version
.gnu.version_d
.gnu.version_r
.rel.dyn
.rel.plt
.ARM.extab
.ARM.exidx
.eh_frame
.eh_frame_hdr
.fini_array
.init_array
.data.rel.ro
.dynamic
.tm_clone_table
.note.gnu.gold-version
.ARM.attributes
