__gmon_start__
GLIBC_2.4
libc.so.6
libwebui_api.so
_ITM_deregisterTMCloneTable
_ITM_registerTMCloneTable
__cxa_finalize
webui_get_https_settings
mifi_dbg_get_level_name
mifi_dbg_log
settings_get_setting
mifi_dbg_syslog
webui_get_https_enabled
webui_set_https_settings
settings_set_setting
webui_set_https_enabled
webui_get_https_port
webui_set_https_port
webui_clear_https_settings
webui_set_remote_admin_conf
MsgBusSetBinary
webui_is_running
msgq_does_queue_exist
webui_set_log_settings
webui_get_log_settings
webui_get_i18n_settings
webui_get_login_settings
webui_get_network_technology_list
webui_get_app_properties
msgq_send_sync
webui_get_app_features
webui_get_app_configurations
webui_set_login_settings
webui_get_country_code
webui_get_uri_data
webui_get_common_features
webui_get_common_configurations
webui_get_network_technology_options
webui_get_apn_list
webui_get_supported_languages
webui_set_i18n_settings
webui_get_welcome_notification
webui_set_welcome_notification
webui_get_automatic_network_selection
webui_set_automatic_network_selection
webui_set_advanced_settings
webui_get_advanced_settings
webui_get_lan_settings
webui_get_customer_support_info
webui_get_external_uri_data
webui_get_site_title_info
webui_get_error_string
webui_get_software_update_status
webui_get_software_update_settings
webui_set_software_update_settings
webui_get_software_update_custom_msgs
webui_su_check_for_update
webui_su_start_install
webui_su_postpone_install
webui_get_last_software_update_status
webui_get_software_installation_duration
webui_set_diagnostic_alert_choice
webui_get_profile_update_status
webui_dm_need_hfa_session
webui_dm_start_hfa_session
webui_dm_cancel_hfa_session
webui_dm_retry_hfa_operation
webui_dm_start_profile_update
webui_dm_cancel_profile_update
webui_dm_user_confirmed_ok
webui_dm_get_sim_restriction_status
webui_dm_perform_sim_unlock
webui_get_macid_from_ipaddress
webui_get_welcome_notification_impl
xmldata_getint32
webui_get_automatic_network_selection_impl
webui_get_external_location_info_impl
xmldata_getstring
webui_get_apn_list_impl
xmldata_getcount
webui_get_customer_support_section_info_impl
xmldata_getuint32
webui_get_network_technology_list_impl
webui_get_supported_languages_impl
webui_get_log_settings_impl
xmldata_getuint32_default
webui_get_lan_settings_impl
webui_get_advanced_settings_impl
webui_set_log_settings_impl
xmldata_setuint32
xmldata_save
MsgBusSetInt32
webui_set_advanced_settings_impl
webui_set_https_enabled_impl
webui_set_https_port_impl
webui_get_i18n_settings_impl
xmldata_getstring_default
webui_set_i18n_settings_impl
xmldata_setstring
webui_set_https_settings_impl
webui_get_https_settings_impl
webui_get_https_enabled_impl
webui_get_https_port_impl
AesDecrypt
AesEncrypt
snprintf
webui_get_login_settings_impl
webui_set_login_settings_impl
webui_set_welcome_notification_impl
xmldata_setint32
webui_set_automatic_network_selection_impl
webui_get_site_title_info_impl
initialize_settings
_ZNKSt5ctypeIcE8do_widenEc
_ZN11AuthSessionD2Ev
GLIBCXX_3.4
libstdc++.so.6
_ZTV11AuthSession
_ZN11AuthSessionD1Ev
_ZN11AuthSessionD0Ev
CXXABI_1.3.9
_ZN11AuthSessionC2Ev
_ZN11AuthSessionC1Ev
_ZN11AuthSession14GetInetAddressEP12webui_addr_t
_ZNK11AuthSession16GetLoginAttemptsEv
_ZNK11AuthSession27GetSecurityQuestionAttemptsEv
_ZN11AuthSession8LoggedOnERb
_ZN11AuthSession12SetTimestampEl
clock_gettime
librt.so.1
_ZN11AuthSession8GetErrorEi
_ZN11AuthSession20DumpBlockedAddressesENSt7__cxx1112basic_stringIcSt11char_traitsIcESaIcEEE
inet_ntop
_ZSt16__ostream_insertIcSt11char_traitsIcEERSt13basic_ostreamIT_T0_ES6_PKS3_i
GLIBCXX_3.4.9
_ZNSo9_M_insertIlEERSoT_
_ZNSo9_M_insertImEERSoT_
_ZNSo3putEc
_ZNSo5flushEv
_ZNKSt5ctypeIcE13_M_widen_initEv
GLIBCXX_3.4.11
_ZSt16__throw_bad_castv
_ZSt4cout
__aeabi_unwind_cpp_pr0
libgcc_s.so.1
_ZN11AuthSession12DumpSessionsENSt7__cxx1112basic_stringIcSt11char_traitsIcESaIcEEE
_ZNSt9basic_iosIcSt11char_traitsIcEE5clearESt12_Ios_Iostate
_ZN11AuthSession14GetSessionSlotEv
sem_trywait
libpthread.so.0
sem_post
_ZNK11AuthSession11HasTimedOutEP15webui_session_t
_ZN11AuthSession18GetNewSubmissionIdERi
_ZN11AuthSession17ClearSubmissionIdEi
_ZNK11AuthSession19IsValidSubmissionIdEi
_ZN11AuthSession13WriteToSyslogEPc12webui_addr_t
_ZN11AuthSession6LogoutEv
_ZN11AuthSession23IncrementFailedAttemptsE12webui_addr_tb
_ZNSt7__cxx1112basic_stringIcSt11char_traitsIcESaIcEE12_M_constructIPKcEEvT_S8_St20forward_iterator_tag
_ZNSt7__cxx1112basic_stringIcSt11char_traitsIcESaIcEE9_M_createERjj
GLIBCXX_3.4.21
_ZSt19__throw_logic_errorPKc
_ZNK11AuthSession12GetSessionIdB5cxx11Ev
_ZN11AuthSession11FindSessionERKNSt7__cxx1112basic_stringIcSt11char_traitsIcESaIcEEE12webui_addr_ti
_ZN11AuthSession11MakeShaHashERKNSt7__cxx1112basic_stringIcSt11char_traitsIcESaIcEEE
sha_init
sha_update
sha_final
_ZN11AuthSession18RenewSecurityTokenEv
__cxa_end_cleanup
CXXABI_1.3
__gxx_personality_v0
_ZN11AuthSession16GetSecurityTokenB5cxx11Eb
_ZN11AuthSession12RenewSessionE12webui_addr_ti
_ZN11AuthSession13CreateSessionE12webui_addr_ti
_ZN11AuthSession4InitERKNSt7__cxx1112basic_stringIcSt11char_traitsIcESaIcEEE12webui_addr_tS7_i
_ZNSt7__cxx1112basic_stringIcSt11char_traitsIcESaIcEE9_M_assignERKS4_
__errno_location
strerror
_ZN11AuthSession16ValidatePasswordERKNSt7__cxx1112basic_stringIcSt11char_traitsIcESaIcEEE
_ZNSt7__cxx1112basic_stringIcSt11char_traitsIcESaIcEE9_M_appendEPKcj
_ZSt20__throw_length_errorPKc
_ZN11AuthSession20ValidateSecurityInfoENSt7__cxx1112basic_stringIcSt11char_traitsIcESaIcEEE
_ZNSt7__cxx1112basic_stringIcSt11char_traitsIcESaIcEE12_M_constructIPcEEvT_S7_St20forward_iterator_tag
_ZN11AuthSession13CheckPasscodeERKNSt7__cxx1112basic_stringIcSt11char_traitsIcESaIcEEEb
_ZN11AuthSession5LoginERKNSt7__cxx1112basic_stringIcSt11char_traitsIcESaIcEEEbb
_ZNSt8ios_base4InitC1Ev
__aeabi_atexit
CXXABI_ARM_1.3.3
_ZNSt8ios_base4InitD1Ev
_ZNSt7__cxx1112basic_stringIcSt11char_traitsIcESaIcEED1Ev
_ZTS11AuthSession
_ZTI11AuthSession
_ZTVN10__cxxabiv117__class_type_infoE
SHA256_Init
OPENSSL_1_1_0
libcrypto.so.1.1
SHA256_Update
SHA256_Final
EVP_CIPHER_CTX_new
EVP_CIPHER_CTX_reset
EVP_aes_256_cbc
EVP_EncryptInit_ex
EVP_EncryptUpdate
EVP_EncryptFinal_ex
libm.so.6
fmemopen
GLIBC_2.22
BIO_f_base64
BIO_new_fp
BIO_push
BIO_set_flags
BIO_write
BIO_ctrl
BIO_free_all
EVP_CIPHER_CTX_free
BIO_read
EVP_DecryptInit_ex
EVP_DecryptUpdate
EVP_DecryptFinal_ex
_ZNK13FnNvtlInArray7GetNameEv
_ZNK8FnGetUri7GetNameEv
_ZNK16FnGetExternalUri7GetNameEv
_ZNK10FnGetTitle7GetNameEv
_ZNK11FnGetPoText7GetNameEv
_ZN11FnGetPoTextD2Ev
_ZN4CTPP14SyscallHandlerD2Ev
_ZTV11FnGetPoText
_ZN11FnGetPoTextD1Ev
_ZN11FnGetPoTextD0Ev
_ZN10FnGetTitleD2Ev
_ZTV10FnGetTitle
_ZN10FnGetTitleD1Ev
_ZN10FnGetTitleD0Ev
_ZN16FnGetExternalUriD2Ev
_ZTV16FnGetExternalUri
_ZN16FnGetExternalUriD1Ev
_ZN16FnGetExternalUriD0Ev
_ZN8FnGetUriD2Ev
_ZTV8FnGetUri
_ZN8FnGetUriD1Ev
_ZN8FnGetUriD0Ev
_ZN13FnNvtlInArrayD2Ev
_ZTV13FnNvtlInArray
_ZN13FnNvtlInArrayD1Ev
_ZN13FnNvtlInArrayD0Ev
_ZN15TemplateWrapperC2Ej
_ZN15TemplateWrapperC1Ej
_ZN15TemplateWrapperC2EjSt6vectorINSt7__cxx1112basic_stringIcSt11char_traitsIcESaIcEEESaIS6_EE
_ZSt17__throw_bad_allocv
__cxa_begin_catch
__cxa_rethrow
__cxa_end_catch
_ZN15TemplateWrapperC1EjSt6vectorINSt7__cxx1112basic_stringIcSt11char_traitsIcESaIcEEESaIS6_EE
_ZN15TemplateWrapper27InstallUserDefinedFunctionsERN4CTPP14SyscallFactoryE
_ZN4CTPP14SyscallFactory15RegisterHandlerEPNS_14SyscallHandlerE
_ZN16FnGetExternalUri7HandlerEPN4CTPP3CDTEjRS1_RNS0_6LoggerE
_ZNK4CTPP3CDT9GetStringB5cxx11EPKc
_ZN4CTPP3CDTaSERKNSt7__cxx1112basic_stringIcSt11char_traitsIcESaIcEEE
_ZNSt7__cxx1112basic_stringIcSt11char_traitsIcESaIcEE10_M_replaceEjjPKcj
_ZN4CTPP6Logger5EmergEPKcz
_ZN8FnGetUri7HandlerEPN4CTPP3CDTEjRS1_RNS0_6LoggerE
_ZN10FnGetTitle7HandlerEPN4CTPP3CDTEjRS1_RNS0_6LoggerE
_Z10ItemExistsRN4CTPP3CDTES1_S1_
_ZNK4CTPP3CDT4SizeEv
_ZN4CTPP3CDTixEj
_ZNK4CTPP3CDT6ExistsERKNSt7__cxx1112basic_stringIcSt11char_traitsIcESaIcEEE
_ZNK4CTPP3CDT6GetCDTERKNSt7__cxx1112basic_stringIcSt11char_traitsIcESaIcEEE
_ZN4CTPP3CDTC1ERKS0_
_ZN4CTPP3CDTD1Ev
_ZN4CTPP3CDTixERKNSt7__cxx1112basic_stringIcSt11char_traitsIcESaIcEEE
_ZN13FnNvtlInArray7HandlerEPN4CTPP3CDTEjRS1_RNS0_6LoggerE
_ZNK4CTPP3CDT7GetTypeEv
_ZN4CTPP3CDTaSEi
_ZNK4CTPP3CDT6GetIntEv
_ZN4CTPP3CDTC1ERKNS0_8eValTypeE
_ZN4CTPP3CDTaSERKS0_
_ZN4CTPP6Logger5ErrorEPKcz
_ZN11FnGetPoText7HandlerEPN4CTPP3CDTEjRS1_RNS0_6LoggerE
dgettext
_ZNKSt7__cxx1112basic_stringIcSt11char_traitsIcESaIcEE7compareEPKc
_ZNSt8ios_baseC2Ev
_ZNSt9basic_iosIcSt11char_traitsIcEE4initEPSt15basic_streambufIcS1_E
_ZNSt6localeC1Ev
_ZNSolsEi
_ZNKSt7__cxx1112basic_stringIcSt11char_traitsIcESaIcEE4findEPKcjj
_ZNSt6localeD1Ev
_ZNSt8ios_baseD2Ev
_ZSt24__throw_out_of_range_fmtPKcz
GLIBCXX_3.4.20
_ZNSt7__cxx1118basic_stringstreamIcSt11char_traitsIcESaIcEED1Ev
_ZTTNSt7__cxx1118basic_stringstreamIcSt11char_traitsIcESaIcEEE
_ZTVSt9basic_iosIcSt11char_traitsIcEE
_ZTVNSt7__cxx1118basic_stringstreamIcSt11char_traitsIcESaIcEEE
_ZTVSt15basic_streambufIcSt11char_traitsIcEE
_ZTVNSt7__cxx1115basic_stringbufIcSt11char_traitsIcESaIcEEE
_ZN15TemplateWrapper14RenderTemplateERKNSt7__cxx1112basic_stringIcSt11char_traitsIcESaIcEEERN4CTPP3CDTERS5_
_ZNK4CTPP3CDT4DumpB5cxx11Ejb
_ZN4CTPP21StringOutputCollectorC1ERNSt7__cxx1112basic_stringIcSt11char_traitsIcESaIcEEE
_ZN4CTPP14SyscallFactoryC1Ej
_ZN4CTPP17STDLibInitializer11InitLibraryERNS_14SyscallFactoryE
_ZN4CTPP10StaticTextC1Ejj
_ZN4CTPP10StaticDataC1Ej
_ZN4CTPP9HashTableC1Ev
_ZN4CTPP13CTPP2CompilerC1ERNS_17VMOpcodeCollectorERNS_10StaticTextERNS_10StaticDataES4_RNS_9HashTableE
_ZN4CTPP21CTPP2FileSourceLoaderC1Ev
_ZN4CTPP21CTPP2FileSourceLoader14SetIncludeDirsERKSt6vectorINSt7__cxx1112basic_stringIcSt11char_traitsIcESaIcEEESaIS7_EE
_ZN4CTPP21CTPP2FileSourceLoader12LoadTemplateEPKc
_ZN4CTPP11CTPP2ParserC1EPNS_17CTPP2SourceLoaderEPNS_13CTPP2CompilerERKNSt7__cxx1112basic_stringIcSt11char_traitsIcESaIcEEERKbi
_ZN4CTPP11CTPP2Parser7CompileERKj
_ZN4CTPP17VMOpcodeCollector7GetCodeERj
_ZN4CTPP8VMDumperC1EjPKNS_13VMInstructionERKNS_10StaticTextERKNS_10StaticDataES6_RKNS_9HashTableE
_ZN4CTPP8VMDumper13GetExecutableERj
_ZN4CTPP12VMMemoryCoreC1EPKNS_12VMExecutableE
_ZN4CTPP2VMC1EPNS_14SyscallFactoryEjjjj
_ZN4CTPP2VM4InitEPKNS_12VMMemoryCoreEPNS_15OutputCollectorEPNS_6LoggerE
_ZN4CTPP2VM3RunEPKNS_12VMMemoryCoreEPNS_15OutputCollectorERjRNS_3CDTEPNS_6LoggerE
_ZN4CTPP2VMD1Ev
_ZN4CTPP16ReducedHashTableD1Ev
_ZN4CTPP15ReducedBitIndexD1Ev
_ZN4CTPP17ReducedStaticTextD1Ev
_ZN4CTPP17ReducedStaticDataD1Ev
_ZN4CTPP8VMDumperD1Ev
_ZN4CTPP11CTPP2ParserD1Ev
_ZN4CTPP21CTPP2FileSourceLoaderD1Ev
_ZN4CTPP13CTPP2CompilerD1Ev
_ZN4CTPP9HashTableD1Ev
_ZN4CTPP10StaticTextD1Ev
_ZN4CTPP10StaticDataD1Ev
_ZN4CTPP17VMOpcodeCollectorD1Ev
_ZN4CTPP17STDLibInitializer14DestroyLibraryERNS_14SyscallFactoryE
_ZN4CTPP14SyscallFactory13RemoveHandlerEPKc
_ZN4CTPP14SyscallFactoryD1Ev
_ZN4CTPP21StringOutputCollectorD1Ev
_ZNK4CTPP17CTPPUnixException5ErrNoEv
_ZN4CTPP11VMDebugInfoC1Ey
_ZNK4CTPP11VMDebugInfo7GetLineEv
_ZNK4CTPP11VMDebugInfo10GetLinePosEv
_ZNK4CTPP13IllegalOpcode9GetOpcodeEv
_ZNK4CTPP27CTPPParserOperatorsMismatch8ExpectedEv
_ZNK4CTPP27CTPPParserOperatorsMismatch5FoundEv
_ZTIN4CTPP13CTPPExceptionE
_ZTIN4CTPP17CTPPUnixExceptionE
_ZTIN4CTPP14CTPPLogicErrorE
_ZTIN4CTPP11VMExceptionE
_ZTIN4CTPP21ExecutionLimitReachedE
_ZTIN4CTPP14StackUnderflowE
_ZTIN4CTPP13StackOverflowE
_ZTIN4CTPP18CodeSegmentOverrunE
_ZTIN4CTPP14InvalidSyscallE
_ZTIN4CTPP13IllegalOpcodeE
_ZTIN4CTPP18CDTAccessExceptionE
_ZTIN4CTPP20CDTTypeCastExceptionE
_ZTIN4CTPP27CTPPParserOperatorsMismatchE
_ZTIN4CTPP21CTPPParserSyntaxErrorE
_ZTSN4CTPP13StackOverflowE
_ZTVN10__cxxabiv120__si_class_type_infoE
_ZTSN4CTPP14StackUnderflowE
_ZTS13FnNvtlInArray
_ZTI13FnNvtlInArray
_ZTS8FnGetUri
_ZTI8FnGetUri
_ZTS16FnGetExternalUri
_ZTI16FnGetExternalUri
_ZTS10FnGetTitle
_ZTI10FnGetTitle
_ZTS11FnGetPoText
_ZTI11FnGetPoText
_ZTIN4CTPP14SyscallHandlerE
_ZN4CTPP14SyscallHandler11InitHandlerERNS_3CDTE
_ZN4CTPP14SyscallHandler15PreExecuteSetupERNS_15OutputCollectorERNS_3CDTERKNS_17ReducedStaticTextERKNS_17ReducedStaticDataES7_RNS_6LoggerE
_ZNK4CTPP14SyscallHandler10GetVersionEv
_ZN4CTPP14SyscallHandler14DestroyHandlerERNS_3CDTE
_ZN18NvtlRedirectHeaderD2Ev
_ZN5cgicc18HTTPRedirectHeaderD2Ev
_ZTV18NvtlRedirectHeader
_ZN18NvtlRedirectHeaderD1Ev
_ZN18NvtlRedirectHeaderD0Ev
_ZNK18NvtlRedirectHeader6renderERSo
_ZN5cgicclsERSoRKNS_11MStreamableE
_ZN9CgiHelper12GetCurrentIpB5cxx11Ev
_ZN9CgiHelper19AuthSessionLoggedOnEv
_ZN9CgiHelper14GetAuthSessionERP11AuthSession
_ZN9CgiHelper13FormKeyExistsERKNSt7__cxx1112basic_stringIcSt11char_traitsIcESaIcEEE
_ZNSt4pairINSt7__cxx1112basic_stringIcSt11char_traitsIcESaIcEEES5_ED2Ev
_ZNSt4pairINSt7__cxx1112basic_stringIcSt11char_traitsIcESaIcEEES5_ED1Ev
_ZN9CgiHelper15SetTemplateRootERKNSt7__cxx1112basic_stringIcSt11char_traitsIcESaIcEEE
_ZN9CgiHelper14SetHttpVersionERKNSt7__cxx1112basic_stringIcSt11char_traitsIcESaIcEEE
_ZN9CgiHelper19SetLanguageFallbackERKNSt7__cxx1112basic_stringIcSt11char_traitsIcESaIcEEE
_ZN9CgiHelper17SetLanguageCookieERKNSt7__cxx1112basic_stringIcSt11char_traitsIcESaIcEEE
_ZN9CgiHelper15SetPageTemplateERKNSt7__cxx1112basic_stringIcSt11char_traitsIcESaIcEEE
_ZN9CgiHelper21SetTemplateStepsLimitEi
_ZN9CgiHelper20SendRedirectResponseERKNSt7__cxx1112basic_stringIcSt11char_traitsIcESaIcEEE
_ZN5cgicc18HTTPRedirectHeaderC2ERKNSt7__cxx1112basic_stringIcSt11char_traitsIcESaIcEEE
_ZN9CgiHelper14GetPostDataPtrB5cxx11Ev
_ZN9CgiHelper20EscapeHTMLCharactersERNSt7__cxx1112basic_stringIcSt11char_traitsIcESaIcEEE
_ZNSt7__cxx1112basic_stringIcSt11char_traitsIcESaIcEE7reserveEj
_ZNSt7__cxx1112basic_stringIcSt11char_traitsIcESaIcEE4swapERS4_
_ZN9CgiHelper23SessionIdExistsWithPOSTEv
_ZNSt6vectorIN5cgicc10HTTPCookieESaIS1_EED2Ev
_ZNSt6vectorIN5cgicc10HTTPCookieESaIS1_EED1Ev
_ZNK9CgiHelper9GetCookieERKN5cgicc14CgiEnvironmentERKNSt7__cxx1112basic_stringIcSt11char_traitsIcESaIcEEES9_
_ZN5cgicc10HTTPCookieC1ERKS0_
_ZNSt6vectorINSt7__cxx1112basic_stringIcSt11char_traitsIcESaIcEEESaIS5_EED2Ev
_ZNSt6vectorINSt7__cxx1112basic_stringIcSt11char_traitsIcESaIcEEESaIS5_EED1Ev
_ZNSt7__cxx1115basic_stringbufIcSt11char_traitsIcESaIcEED2Ev
_ZNSt7__cxx1115basic_stringbufIcSt11char_traitsIcESaIcEED1Ev
_ZN9CgiHelper20GetErrorTemplatePathB5cxx11Ei
_ZNSt7__cxx1115basic_stringbufIcSt11char_traitsIcESaIcEED0Ev
_ZNSt8_Rb_treeINSt7__cxx1112basic_stringIcSt11char_traitsIcESaIcEEESt4pairIKS5_S5_ESt10_Select1stIS8_ESt4lessIS5_ESaIS8_EE8_M_eraseEPSt13_Rb_tree_nodeIS8_E
_ZNSt8_Rb_treeINSt7__cxx1112basic_stringIcSt11char_traitsIcESaIcEEESt4pairIKS5_S5_ESt10_Select1stIS8_ESt4lessIS5_ESaIS8_EE16_M_insert_uniqueIS6_IS5_S5_EEES6_ISt17_Rb_tree_iteratorIS8_EbEOT_
_ZSt29_Rb_tree_insert_and_rebalancebPSt18_Rb_tree_node_baseS0_RS_
_ZSt18_Rb_tree_decrementPSt18_Rb_tree_node_base
_ZN9CgiHelper9SetCookieERKNSt7__cxx1112basic_stringIcSt11char_traitsIcESaIcEEES7_
_ZN9CgiHelper9SetHeaderERKNSt7__cxx1112basic_stringIcSt11char_traitsIcESaIcEEES7_
_ZNSt6vectorINSt7__cxx1112basic_stringIcSt11char_traitsIcESaIcEEESaIS5_EE17_M_realloc_insertIJRKS5_EEEvN9__gnu_cxx17__normal_iteratorIPS5_S7_EEDpOT_
_ZN9CgiHelper18AddPageIncludePathERKNSt7__cxx1112basic_stringIcSt11char_traitsIcESaIcEEE
_ZNSt6vectorINSt7__cxx1112basic_stringIcSt11char_traitsIcESaIcEEESaIS5_EE12emplace_backIJS5_EEEvDpOT_
_ZN9CgiHelper12RemoveCookieERKNSt7__cxx1112basic_stringIcSt11char_traitsIcESaIcEEE
_ZN9CgiHelper15GetStatusStringB5cxx11Ei
_ZNK9CgiHelper5GetIpB5cxx11ERKN5cgicc14CgiEnvironmentE
_ZN9CgiHelper16SanitizeFileNameERNSt7__cxx1112basic_stringIcSt11char_traitsIcESaIcEEE
_ZNKSt7__cxx1112basic_stringIcSt11char_traitsIcESaIcEE4findEcj
_ZNK9CgiHelper12GetFormValueERKNSt7__cxx1112basic_stringIcSt11char_traitsIcESaIcEEE
_ZN9CgiHelper26DeleteUploadedFilesOnErrorEv
_ZN9CgiHelper12ReadPostDataEv
_ZN5cgicc9FormEntryaSERKS0_
_ZN5cgicc8FormFileaSERKS0_
__lxstat
_ZNSt13basic_filebufIcSt11char_traitsIcEEC1Ev
_ZNSt13basic_filebufIcSt11char_traitsIcEE4openEPKcSt13_Ios_Openmode
_ZNKSt12__basic_fileIcE7is_openEv
_ZNK5cgicc8FormFile13writeToStreamERSo
_ZNSt13basic_filebufIcSt11char_traitsIcEE5closeEv
_ZNSt12__basic_fileIcED1Ev
_ZNSt14basic_ofstreamIcSt11char_traitsIcEED1Ev
_ZN5cgicc8FormFileD1Ev
_ZNSt13basic_filebufIcSt11char_traitsIcEED1Ev
_ZN5cgicc9FormEntryD1Ev
_ZTTSt14basic_ofstreamIcSt11char_traitsIcEE
_ZTVSt14basic_ofstreamIcSt11char_traitsIcEE
_ZTVSt13basic_filebufIcSt11char_traitsIcEE
_ZN9CgiHelperC2Ev
_ZN5cgicc5CgiccC1EPNS_8CgiInputE
_ZN5cgicc14CgiEnvironmentaSERKS0_
_Z18GetIPAddressFamilyRKNSt7__cxx1112basic_stringIcSt11char_traitsIcESaIcEEEPi
inet_pton
_ZN5cgicc14CgiEnvironmentD1Ev
_ZN5cgicc5CgiccD1Ev
_ZTV9CgiHelper
_ZN9CgiHelperC1Ev
_ZN9CgiHelper11GetInstanceEv
_ZN9CgiHelper9pInstanceE
_ZN9CgiHelperD2Ev
_ZN9CgiHelperD1Ev
_ZN9CgiHelperD0Ev
_ZN9CgiHelper12SendResponseEiRKNSt7__cxx1112basic_stringIcSt11char_traitsIcESaIcEEE
_ZN5cgicc18HTTPResponseHeaderC1ERKNSt7__cxx1112basic_stringIcSt11char_traitsIcESaIcEEEiS8_
_ZN5cgicc18HTTPResponseHeader9addHeaderERKNSt7__cxx1112basic_stringIcSt11char_traitsIcESaIcEEES8_
_ZN5cgicc10HTTPCookieC1ERKNSt7__cxx1112basic_stringIcSt11char_traitsIcESaIcEEES8_S8_S8_mS8_b
_ZN5cgicc18HTTPResponseHeader9setCookieERKNS_10HTTPCookieE
_ZN5cgicc10HTTPCookieD1Ev
_ZSt18_Rb_tree_incrementPSt18_Rb_tree_node_base
_ZN5cgicc18HTTPResponseHeaderD1Ev
_ZN9CgiHelper16SendTmplResponseEiRN4CTPP3CDTE
_ZN9CgiHelper17SendErrorResponseEiRN4CTPP3CDTE
_ZTS9CgiHelper
_ZTI9CgiHelper
_ZTS18NvtlRedirectHeader
_ZTI18NvtlRedirectHeader
_ZTIN5cgicc18HTTPRedirectHeaderE
_ZN5cgicc6FCgiIO4readEPcj
FCGX_GetStr
_ZN5cgicc6FCgiIO3errEv
_ZNSt8_Rb_treeINSt7__cxx1112basic_stringIcSt11char_traitsIcESaIcEEESt4pairIKS5_S5_ESt10_Select1stIS8_ESt4lessIS5_ESaIS8_EE24_M_get_insert_unique_posERS7_
_ZNSt8_Rb_treeINSt7__cxx1112basic_stringIcSt11char_traitsIcESaIcEEESt4pairIKS5_S5_ESt10_Select1stIS8_ESt4lessIS5_ESaIS8_EE22_M_emplace_hint_uniqueIJRKSt21piecewise_construct_tSt5tupleIJOS5_EESJ_IJEEEEESt17_Rb_tree_iteratorIS8_ESt23_Rb_tree_const_iteratorIS8_EDpOT_
_ZN5cgicc6FCgiIO6getenvB5cxx11EPKc
_ZNSt8_Rb_treeINSt7__cxx1112basic_stringIcSt11char_traitsIcESaIcEEESt4pairIKS5_S5_ESt10_Select1stIS8_ESt4lessIS5_ESaIS8_EE7_M_copyINSE_11_Alloc_nodeEEEPSt13_Rb_tree_nodeIS8_EPKSI_PSt18_Rb_tree_node_baseRT_
_ZN5cgicc6FCgiIOD2Ev
_ZN14fcgi_streambufD1Ev
_ZN5cgicc8CgiInputD2Ev
_ZN5cgicc6FCgiIOD1Ev
_ZTVN5cgicc6FCgiIOE
_ZN5cgicc6FCgiIOC2ERK12FCGX_Request
_ZN14fcgi_streambufC1EP11FCGX_Stream
_ZNSt9basic_iosIcSt11char_traitsIcEE5rdbufEPSt15basic_streambufIcS1_E
__cxa_allocate_exception
_ZNSt13runtime_errorC1EPKc
__cxa_throw
__cxa_free_exception
_ZTVN5cgicc8CgiInputE
_ZNSt13runtime_errorD1Ev
_ZTISt13runtime_error
_ZN5cgicc6FCgiIOC1ERK12FCGX_Request
_ZN5cgicc6FCgiIOC2ERKS0_
_ZN5cgicc6FCgiIOC1ERKS0_
_ZTv0_n12_N5cgicc6FCgiIOD1Ev
_ZThn4_N5cgicc6FCgiIOD1Ev
_ZN5cgicc6FCgiIOD0Ev
_ZThn4_N5cgicc6FCgiIOD0Ev
_ZTv0_n12_N5cgicc6FCgiIOD0Ev
_ZTSN5cgicc6FCgiIOE
_ZTIN5cgicc6FCgiIOE
_ZTTN5cgicc6FCgiIOE
_ZTVN10__cxxabiv121__vmi_class_type_infoE
_ZTIN5cgicc8CgiInputE
webui_factory_reset
initialize_factory_reset_func
__bss_start
libwatchdog_api.so
libmifi_config.so
libsettings_api.so
libbluetooth_api.so
libxml2.so.2
libmificommon.so
libmifi_debug.so
libmifimsgbus.so
libxmldata_api.so
libiconv.so.2
libctpp2.so.2
libcgicc.so.3
libfcgi.so.0
libfcgi++.so.0
libz.so.1
libdl.so.2
libcurl.so.4
libcares.so.2
libssl.so.1.1
libsqlite3.so.0
libuisupport.so
H	KxD	J{D
webui_get_https_settings
webui_get_https_enabled
webui_set_https_settings
webui_set_https_enabled
webui_get_https_port
webui_set_https_port
webui_clear_https_settings
webui_set_remote_admin_conf
webui_set_log_settings
webui_get_log_settings
webui_get_i18n_settings
webui_get_login_settings
webui_get_network_technology_list
webui_get_app_properties
webui_get_app_features
webui_get_app_configurations
webui_set_login_settings
set_passcode
webui_get_country_code
webui_get_uri_data
webui_get_common_features
webui_get_common_configurations
webui_get_network_technology_options
webui_get_apn_list
webui_get_supported_languages
webui_set_i18n_settings
webui_get_welcome_notification
webui_set_welcome_notification
webui_get_automatic_network_selection
webui_set_automatic_network_selection
webui_set_advanced_settings
webui_get_advanced_settings
webui_get_lan_settings
webui_get_customer_support_info
webui_get_external_uri_data
webui_get_site_title_info
webui_get_software_update_status
webui_get_software_update_settings
webui_set_software_update_settings
webui_get_software_update_custom_msgs
webui_su_check_for_update
webui_su_start_install
webui_su_postpone_install
webui_get_last_software_update_status
webui_get_software_installation_duration
webui_set_diagnostic_alert_choice
webui_get_profile_update_status
webui_dm_need_hfa_session
webui_dm_start_hfa_session
webui_dm_cancel_hfa_session
webui_dm_retry_hfa_operation
webui_dm_start_profile_update
webui_dm_cancel_profile_update
webui_dm_user_confirmed_ok
webui_dm_get_sim_restriction_status
webui_dm_perform_sim_unlock
webui_get_macid_from_ipaddress
[%s]:[%s] - %s - BEGIN
webui.https.settings
[%s]:[%s] - %s - settings_get_setting(%s) failed, returned %d. Try webui_cli get_https_settings from command line.
[%s]:[%s] - %s - END returning %d
webui.httpsenabled.settings
[%s]:[%s] - %s - settings_get_setting(%s) failed, returned %d. Try webui_cli get_https_enabled from command line.
[%s]:[%s] - %s - webui_get_https_enabled returned %d. Try webui_cli set_https_settings from command line.
[%s]:[%s] - %s - Set on https settings cannot be done when https is enabled. Try webui_cli set_https_settings from command line.
[%s]:[%s] - HTTPS Settings Update: certificate_name: [%s], country_name: [%s], state_name: [%s] locality_name: [%s] organization_name: [%s] ou_name: [%s] common_name: [%s] email_address: [%s] validity: [%d]
[%s]:[%s] - %s - settings_get_setting(%s) failed, returned %d. Try webui_cli set_https_settings from command line.
[%s]:[%s] - %s - Set on https enabled cannot be done when certificate is nil. Try webui_cli set_https_enabled from command line.
[%s]:[%s] - %s - settings_get_setting(%s) failed, returned %d. Try webui_cli set_https_enabled from command line.
[%s]:[%s] - HTTPS Enable/Disable: enabled: [%d]
webui.httpsport.settings
[%s]:[%s] - %s - settings_get_setting(%s) failed, returned %d. Try webui_cli get_https_port from command line.
[%s]:[%s] - %s - settings_get_setting(%s) failed, returned %d. Try webui_cli set_https_port from command line.
[%s]:[%s] - port: [%d]
[%s]:[%s] - %s - webui_get_https_enabled returned %d. Try webui_cli clear_https_settings from command line.
[%s]:[%s] - %s - Clear cannot be done when https is enabled. Try webui_cli clear_https_settings from command line.
[%s]:[%s] - Updating port: [%d]
[%s]:[%s] - HTTPS Settings Clear: certificate_name: [%s], country_name: [%s], state_name: [%s] locality_name: [%s] organization_name: [%s] ou_name: [%s] common_name: [%s] email_address: [%s] validity: [%d]
[%s]:[%s] - %s - settings_get_setting(%s) failed, returned %d. Try webui_cli clear_https_settings from command line.
[%s]:[%s] - %s - Invalid parameters
[%s]:[%s] - Remote Admin Settings Update: wan_ip: [%s], enabled: [%d]
webui.remotewebui.lighttpdconf
/webui_mq
[%s]:[%s] - webui queue doesn't exist. process not running?
webui.log.settings
[%s]:[%s] - Settings Update: Log Display on WEBUI Enabled: [%d], Log Lifetime: [%d]
[%s]:[%s] - %s - webui_validate_log_settings failed.
[%s]:[%s] - %s - settings_get_setting(%s) failed, returned %d. Try webui_cli get_log_settings from command line.
localization.general.settings
[%s]:[%s] - %s - settings_get_setting(%s) failed, returned %d. Try webui_cli get_i18n_settings from command line.
webui.authentication.settings
[%s]:[%s] - %s - settings_get_setting(%s) failed, returned %d. Try webui_cli get_login_settings from command line.
webui.networklist.settings
[%s]:[%s] - %s - settings_get_setting(%s) failed, returned %d. Try webui_cli get_network_technology_list from command line.
[%s]:[%s] - %s - Sending WEBUI_MSG_GET_APP_PROPERTIES message to WEBUI process.
[%s]:[%s] - %s - Error rc %d
[%s]:[%s] - %s - Sending WEBUI_MSG_GET_APP_FEATURES message to WEBUI process.
[%s]:[%s] - %s - Buffer Insufficient size needed[%d]
[%s]:[%s] - %s - Sending WEBUI_MSG_GET_APP_CONFIGURATION message to WEBUI process.
[%s]:[%s] - Login failed at webui_validate_range_field : %d
[%s]:[%s] - Login failed, empty answer provided.
MinimumPasscodeLength
[%s]:[%s] - Login failed, password length(%d) is < %s.
[%s]:[%s] - %s - webui_validate_login_settings failed.
[%s]:[%s] - Settings Update: Login Retries Allowed: [%d], Security Question Type: [%d], Security Answer: [%s], Password: [%s], Default Password: [%s] Logout Timeout Duration: [%d]
[%s]:[%s] - %s - Sending WEBUI_MSG_GET_COUNTRY_CODE message to WEBUI process.
[%s]:[%s] - %s - mobile_country_code: [%d] country_code:[%d]
[%s]:[%s] - %s - Sending WEBUI_MSG_GET_URI_DATA message to WEBUI process.
[%s]:[%s] - %s - Sending WEBUI_MSG_GET_COMMON_FEATURES message to WEBUI process.
[%s]:[%s] - %s - Sending WEBUI_MSG_GET_COMMON_CONFIGURATION message to WEBUI process.
[%s]:[%s] - %s - Sending WEBUI_MSG_GET_NETWORK_TECHNOLOGY_OPTIONS message to WEBUI process.
webui.apn.list.settings
[%s]:[%s] - %s - settings_get_setting failed, returned %d. Try webui_cli get_apn_list from command line.
webui.supportedlanguages.settings
[%s]:[%s] - Settings Update: Language: [%s], Date Format: [%d], Time Format: [%d], Temperature format: [%d], Distance Format: [%d], Numeric Format: [%d]
[%s]:[%s] - %s - webui_validate_i18n_settings failed.
[%s]:[%s] - %s - Error in updating locale(%s) to WebUI Framework...rc %d
webui.welcome.notification.settings
[%s]:[%s] - %s - enabled[%d]
[%s]:[%s] - %s - settings_get_setting(%s) failed, returned %d. Try webui_cli get_welcome_notification from command line.
[%s]:[%s] - Settings Update: Welcome Notification Enabled: [%d]
[%s]:[%s] - %s - webui_validate_enabled_field failed.
webui.automatic.network.selection.settings
[%s]:[%s] - %s - Automatic network selection enabled [%d]
[%s]:[%s] - %s - settings_get_setting(%s) failed, returned %d. Try webui_cli get_automatic_network_selection from command line.
[%s]:[%s] - Settings Update: Automatic network selection enabled [%d]
[%s]:[%s] - %s - settings_get_setting(%s) failed, returned %d. Try webui_cli set_automatic_network_selection from command line.
webui.advanced.settings
[%s]:[%s] - Settings Update: Login Enabled: [%d], GPS App Login Enabled: [%d], Network Settings App Login Enabled: [%d]
[%s]:[%s] - %s - webui_validate_advanced_settings failed.
[%s]:[%s] - %s - settings_get_setting(%s) failed, returned %d. Try webui_cli get_advanced_settings from command line.
webui.lan.settings
[%s]:[%s] - %s - settings_get_setting(%s) failed, returned %d. Try webui_cli get_lan_settings from command line.
webui.customercare.settings
[%s]:[%s] - %s - settings_get_setting failed, returned %d. Try webui_cli get_customer_support_info from command line.
webui.externallinks.settings
[%s]:[%s] - %s - settings_get_setting(%s) failed, returned %d. Try webui_cli get_external_uri_data from command line.
webui.sitetitle.settings
WEBUI: unknown error.
WEBUI: success.
WEBUI: one or more bad parameters passed into a function.
WEBUI: one or more buffer type parameters passed into API is too small.
WEBUI: the feature is unsupported.
WEBUI: process not running.
WEBUI: buffer passed into api is too large for the message queue.
WEBUI: general error.
[%s]:[%s] - %s - Sending WEBUI_MSG_GET_SOFTWARE_UPDATE_STATUS message to WEBUI process.
[%s]:[%s] - %s - Sending WEBUI_MSG_GET_SOFTWARE_UPDATE_SETTINGS message to WEBUI process.
[%s]:[%s] - %s - webui_validate_software_update_settings failed.
[%s]:[%s] - %s - Sending WEBUI_MSG_SET_SOFTWARE_UPDATE_SETTINGS message to WEBUI process.
[%s]:[%s] - %s - Sending WEBUI_MSG_GET_SOFTWARE_UPDATE_CUSTOM_MESSAGES message to WEBUI process.
[%s]:[%s] - %s - Sending WEBUI_MSG_GET_LAST_SOFTWARE_UPDATE_STATUS message to WEBUI process.
[%s]:[%s] - %s - Sending WEBUI_MSG_GET_SOFTWARE_INSTALLATION_DURATION message to WEBUI process.
[%s]:[%s] - %s - SIZE : %d
[%s]:[%s] - %s - Sending WEBUI_MSG_DM_UPDATE_STATUS message to WEBUI process.
[%s]:[%s] - %s - Sending WEBUI_MSG_DM_NEED_HFA message to WEBUI process.
[%s]:[%s] - %s - Sending WEBUI_MSG_DM_GET_SIM_RESTRICTION message to WEBUI process.
[%s]:[%s] - %s - Sending WEBUI_MSG_GET_MACID_FROM_IPADDRESS message to WEBUI process.
[%s]:[%s] - %s - macid returned from queue %s
/Settings/Webui/Applications/AppsHome/ShowWelcomeNotification
/Settings/Webui/Applications/WwanSettings/ShowEnableAutomaticNetworkSelection
/Settings/ExternalLocations/URI[@id='%s']/URL
/Settings/ExternalLocations/URI[@id='%s']/Text
/Settings/Webui/APNList/Carrier[@id='%d']/APN
[%s]:[%s] - %s - xmldata_getcount(%s) failed.
/Settings/Webui/APNList/Carrier[@id='%d']/APN[%d]
/Settings/Webui/Applications/CustomerCare/Section
/Settings/Webui/Applications/CustomerCare/Section[%d]/Title
/Settings/Webui/Applications/CustomerCare/Section[%d]/@id
/Settings/Webui/Applications/CustomerCare/Section[%d]/Contents/Content
/Settings/Webui/Applications/CustomerCare/Section[%d]/Contents/Content[%d]/URL
/Settings/Webui/Applications/CustomerCare/Section[%d]/Contents/Content[%d]/Text
/Settings/Webui/Applications/CustomerCare/Section[%d]/Contents/Content[%d]/Label
/Settings/Webui/Applications/CustomerCare/Section[%d]/Contents/Content[%d]/Value
/Settings/Webui/NetworkTechnologyList/NetworkTechnology
/Settings/Webui/NetworkTechnologyList/NetworkTechnology[%d]/Value
/Settings/Webui/NetworkTechnologyList/NetworkTechnology[%d]/PrependText
/Settings/Webui/NetworkTechnologyList/NetworkTechnology[%d]/AppendText
/Settings/Webui/NetworkTechnologyList/NetworkTechnology[%d]/EncloseTechnologyTextInBraces
/Settings/Webui/NetworkTechnologyList/NetworkTechnology[%d]/Text/TechnologyText
/Settings/Webui/NetworkTechnologyList/NetworkTechnology[%d]/Format
/Settings/Webui/NetworkTechnologyList/NetworkTechnology[%d]/Text/TechnologyText[%d]
/Settings/Webui/NetworkTechnologyList/NetworkTechnology[%d]/Format[%d]/Locale
/Settings/Webui/NetworkTechnologyList/NetworkTechnology[%d]/Format[%d]/Specifier
/Settings/Webui/SupportedLanguages/Language
/Settings/Webui/SupportedLanguages/Language[%d]/Label
/Settings/Webui/SupportedLanguages/Language[%d]/Locale
/Settings/Webui/Applications/Logs/LogLifeTime
/Settings/Webui/Applications/Logs/Enabled
/Settings/Webui/Applications/LAN/ShowIPPTEnable
/Settings/Webui/Applications/LAN/ShowIPPTReadOnly
/Settings/Webui/Applications/LAN/UpdateWiFiOnIPPTEnabled
/Settings/Webui/Applications/LAN/ShowIPPTInterface
/Settings/Webui/Applications/LAN/ShowGatewaySettings
/Settings/Webui/Applications/AdvancedSettings/LoginEnabled
/Settings/Webui/Applications/AdvancedSettings/GPSAppLoginEnabled
/Settings/Webui/Applications/AdvancedSettings/NetworksAppLoginEnabled
/Settings/Webui/Applications/HTTPSSettings/Enabled
/Settings/Webui/Applications/HTTPSSettings/Port
/Settings/Localization/Language
/Settings/Localization/DateFormat
/Settings/Localization/TimeFormat
/Settings/Localization/TemperatureUnit
/Settings/Localization/DistanceUnit
/Settings/Localization/NumericDecimalSeparator
/Settings/Webui/Applications/HTTPSSettings/CertificateDetails/CertificateName
/Settings/Webui/Applications/HTTPSSettings/CertificateDetails/CountryName
/Settings/Webui/Applications/HTTPSSettings/CertificateDetails/StateName
/Settings/Webui/Applications/HTTPSSettings/CertificateDetails/LocalityName
/Settings/Webui/Applications/HTTPSSettings/CertificateDetails/OrganizationName
/Settings/Webui/Applications/HTTPSSettings/CertificateDetails/OUName
/Settings/Webui/Applications/HTTPSSettings/CertificateDetails/CommonName
/Settings/Webui/Applications/HTTPSSettings/CertificateDetails/EmailAddress
/Settings/Webui/Applications/HTTPSSettings/CertificateDetails/Validity
[%s]:[%s] - %s - Invoking msgbus data 1 for clear.
[%s]:[%s] - %s - Invoking msgbus data 2 for certificate change.
[%s]:[%s] - %s - BEGIN.
/Settings/Webui/Login/PasswordUpdated
[%s]:[%s] - %s - UpdateVal:[%d]
/Settings/Webui/Login/WebuiPassword
Ins3eg0!23
[%s]:[%s] - %s - Changing to encrypted form.
[%s]:[%s] - %s - Error in encrypting current password.
[%s]:[%s] - %s - Error in encrypting current password, encPasswd empty.
[%s]:[%s] - %s - password encrypted.
/Settings/Webui/Login/WebuiDefaultPassword
[%s]:[%s] - %s - Error in encrypting current default password.
[%s]:[%s] - %s - Error in encrypting current default password, encPasswd empty.
/Settings/Webui/Login/SecurityQuestion/Answer
[%s]:[%s] - %s - Error in encrypting security answer.
[%s]:[%s] - %s - Error in encrypting security answer, encPasswd empty.
[%s]:[%s] - %s - no need to change as its empty.
[%s]:[%s] - %s - Error in webui_check_and_convert_password().
[%s]:[%s] - %s - already done.
[%s]:[%s] - %s - END.
/Settings/Webui/Login/AutoLogOut
/Settings/Webui/Login/SecurityQuestion/Question
/Settings/Webui/Login/MaxRetries
/Settings/Webui/SiteTitle
basic_string::_M_construct null not valid
out of bound sessionError
, login attempts: 
, sessId: 
, token: 
, access: 
[%s]:[%s] - %s - GetSessionSlot: found empty slot [ %d ]
[%s]:[%s] - %s - GetSessionSlot: no open slots available
[%s]:[%s] - %s %s %s
{mifios_sysevent}:
WebUI log out the session for 
[%s]:[%s] - %s Check if entry exists in Blocked-list.
[%s]:[%s] - %s Previous entry exists in blocked-list at index(%d)
[%s]:[%s] - %s Found empty slot in Blocked-list at index(%d)
[%s]:[%s] - %s Since blocked-list is full, replaced entry at index(%d)
[%s]:[%s] - %s - Invalid login attempt: %d from %s (blacklist[%d])
WebUI max login attempts/ securityAnswer attempts reached for 
[%s]:[%s] - %s Blocked-list is full. Discard oldest entry
[%s]:[%s] - %s Find an empty slot in Blocked-list.
[%s]:[%s] - %s - session: %s has expired!
WebUI session timed out for 
[%s]:[%s] - %s - Request came with same session id and different IP, check mac ids
[%s]:[%s] - %s - Older mac id in this session is %s
[%s]:[%s] - %s - New IP in string format is %s
[%s]:[%s] - %s - webui_get_macid_from_ipaddress failed with status %d
[%s]:[%s] - %s - New mac id is %s
[%s]:[%s] - Mac id found same although IP is different
[%s]:[%s] - Mac id found to be different, hence will be unauthorized
[%s]:[%s] - %s sessions_[%d] found in shared memory segment
[%s]:[%s] - %s - Found ip for new session %s
[%s]:[%s] - %s - Mac id found %s, copying into new session
[%s]:[%s] - %s GetSessionSlot() returns %s
[%s]:[%s] - %s RenewSession() returns %s
[%s]:[%s] - %s -BEGIN session_id[%s], ip[%s], agent[%s], mode[%d]
[%s]:[%s] - %s shmget(%d, %d, 0666) error => %s
[%s]:[%s] - %s shmat(%d, NULL, 0) error => %s
[%s]:[%s] - %s : creating new session
[%s]:[%s] - %s : find %s
[%s]:[%s] - %s : webui API failed in reading login Information
[%s]:[%s] - %s -END 
basic_string::append
[%s]:[%s] - %s stoken => %s
[%s]:[%s] - %s webui API failed in reading login Information
[%s]:[%s] - %s - Security Answer validation failed!
[%s]:[%s] - %s IP Family is %s
WebUI authenticate admin session started 
[%s]:[%s] - %s Password validation failed!
WebUI login password validation failed for 
/usr/share/locale
/etc/profile
/opt/nvtl/
/opt/nvtl/bin/
/opt/nvtl/etc/
/opt/nvtl/data/
_log_config.cfg
/sysconf/
ui_def_config.xml
ui_config.xml
acl_config.xml
restore_ace_defaults
webui_site_config.json
app_config.json
menu_layout.json
app.tmpl
/var/log/debug-logs.tgz
storelogs.sh
model_string.txt
gpsstatus
uinative
websupport
uisupport
<absent>
mifisess
gBaseAssetsPath
gHtmlLang
gLangDirection
gHttpStatusCode
gHttpStatusErrorMsg
gCssList
gSecureToken
gIsLoggedIn
gMenuLayout
gPostSuccess
gSiteTitle
gModelName
gHelpURL
gProductName
gProductNumber
gRedirectUrl
gIsSMSEnabled
gIsAdminSettingsEnabled
gIsDefaultPassword
gIsPromptChangePassword
gIsSMSLOCKED
gIsDeviceAgent
gIsMultiSimSupported
AUTH_SESSION_SUCCESS
AUTH_SESSION_INIT_FAILURE
AUTH_SESSION_UNKNOWN_STATE
AUTH_SESSION_UNKNOWN_SESSION
AUTH_SESSION_DB_OVERFLOW
AUTH_SESSION_DB_UNINITIALIZED
AUTH_SESSION_INVALID_LOGIN
AUTH_SESSION_INVALID_PASSWORD
AUTH_SESSION_INVALID_TOKEN
AUTH_SESSION_EXPIRE_TIMEOUT
AUTH_SESSION_LOGIN_TIMEOUT
AUTH_SESSION_SUBMISSION_ID_GENERATION_FAILURE
AUTH_SESSION_INVALID_SUBMISSION_ID
AUTH_SESSION_INVALID_INET_UNION
AUTH_SESSION_LOGIN_MAX_ATTEMPTS
[%s]:[%s] - %s - END
[%s]:[%s] - memory allocation for cipher text failed.
[%s]:[%s] -  fmemopen failed during encode.
[%s]:[%s] -  fmemopen failed during decode.
[%s]:[%s] -  Decoding failed.
[%s]:[%s] -  memory allocation for plain text failed.
GET_TITLE
GET_PO_TEXT
NVTL_IN_ARRAY
GET_EXTERNAL_URI
[%s]:[%s] - %s - Creating a template wrapper
Usage: GET_EXTERNAL_URI(variable)
Usage: GET_URI(variable)
Usage: GET_TITLE(variable)
children
Usage: FnNvtlInArray(variable, array) or Usage: FnNvtlInArray(variable, array, itemname_in_array
Second argument MUST be ARRAY
[%s]:[%s] - arg count (%d) 
Usage: GET_PO_TEXT(po_key, [arg1], [arg2], [arg3])
[%s]:[%s] - %s - po string is empty or no arguments passed.
basic_string::replace
%s: __pos (which is %zu) > this->size() (which is %zu)
[%s]:[%s] - %s - Number of arguments mismatched
[%s]:[%s] - %s - Rendering template %s
[%s]:[%s] - Template data is %s
[%s]:[%s] - %s - Initializing and running the VM, code_size[%u] steps_limit[%u]
[%s]:[%s] - %s - Returning %d (%d) after rendering the template
[%s]:[%s] - %s - At line %d, pos %d: %s
[%s]:[%s] - %s - At line %d, pos %d: expected %s, but found </%s>
[%s]:[%s] - %s - Type Cast %s
[%s]:[%s] - %s - Array index out of bounds: %s
[%s]:[%s] - %s - Illegal opcode 0x%08X at 0x%08X
[%s]:[%s] - %s - %s at 0x%08X (Template file "%s", Line %d, Pos: %d)
[%s]:[%s] - %s - Unsupported syscall: "%s"
[%s]:[%s] - %s - %s at 0x%08X
[%s]:[%s] - %s - Stack overflow at 0x%08X
[%s]:[%s] - %s - Stack underflow at 0x%08X
[%s]:[%s] - %s - Execution limit of %d step(s) reached at 0x%08X
[%s]:[%s] - %s - VM generic exception: %s at 0x%08X
[%s]:[%s] - %s - %s
[%s]:[%s] - %s - I/O in %s: %s
[%s]:[%s] - %s - CTPP Generic exception: %s
[%s]:[%s] - %s - Bad thing happened.
Status: 303 See Other
Location: 
Connection: close
[%s]:[%s] - %s- BEGIN, input:[%s]
[%s]:[%s] - %s- END, Escaped input:[%s]
[%s]:[%s] - %s- BEGIN
[%s]:[%s] - %s- Found cookie %s
[%s]:[%s] - %s- END 
; HttpOnly;SameSite=Lax
[%s]:[%s] - %s- Cookie is:[%s] 
removed; expires=Thu, 01-Jan-1970 00:00:01 GMT
Bad Request
Not Found
Method Not Allowed
127.0.0.1
basic_string::substr
[%s]:[%s] - %s- BEGIN, File name:[%s]
\|/?"'<>,:;{}[]~`!@#$%^&*()-_ +=
[%s]:[%s] - %s- invalidChars are %s
[%s]:[%s] - %s- END with Sanitized File name:[%s]
[%s]:[%s] - %s- File path:[%s]
[%s]:[%s] - %s- Removed File at:[%s]
[%s]:[%s] - %s- Unable to remove uploaded file at:[%s] returned error:[%s]
[%s]:[%s] - %s- END
[%s]:[%s] - %s - POST/QUERY data - BEGIN
[%s]:[%s] - Post/Query data is %s and the value is %s
[%s]:[%s] - %s - POST/QUERY data - END
[%s]:[%s] - %s File ** %s => %s
HTTP/1.1
[%s]:[%s] - %s - Entered CgiHelper from cgi_helper
[%s]:[%s] - %s CgiHelper: env.getRemoteAddr() -> %s
[%s]:[%s] - %s CgiHelper: Unable to determine the family of ip(%s)
[%s]:[%s] - %s Session id is empty for post
[%s]:[%s] - %s - session %s not found
[%s]:[%s] - %s CgiHelper: admin %s logged in
[%s]:[%s] - %s- Calling pInstance
[%s]:[%s] - %s- pInstance is NULL
Content-Length
X-UA-Compatible
IE=edge, chrome=1
Cache-Control
no-store, no-cache, must-revalidate, max-age=0
Mon, 26 Jul 1997 05:00:00 GMT
no-cache
X-Frame-Options
Connection
Referrer-Policy
same-origin
components
[%s]:[%s] - %s - statusCode = %d, trying to load error template
[%s]:[%s] - %s - htmlLang = %s 
[%s]:[%s] - Error template to be loaded is %s/%s/%d.html
/opt/nvtl/webui/public/errors
[%s]:[%s] - %s Error writing template
Illegally formed environment
/opt/nvtl/data/webui/ssl
rm -rf %s > /dev/null
[%s]:[%s] - %s - ssl directory deletion failed. rc:%d
webui_get_apn_list_impl
webui_get_customer_support_section_info_impl
webui_get_network_technology_list_impl
webui_get_supported_languages_impl
webui_set_https_settings_impl
webui_check_and_convert_password
webui_get_login_settings_impl
int AuthSession::GetSessionSlot()
int AuthSession::IncrementFailedAttempts(webui_addr_t, bool)
int AuthSession::FindSession(const string&, webui_addr_t, int)
int AuthSession::RenewSession(webui_addr_t, int)
int AuthSession::CreateSession(webui_addr_t, int)
int AuthSession::Init(const string&, webui_addr_t, const string&, int)
int AuthSession::ValidatePassword(const string&)
int AuthSession::ValidateSecurityInfo(std::__cxx11::string)
int AuthSession::Login(const string&, bool, bool)
11AuthSession
GetKeyBytes
AesEncrypt
Base64Encode
AesDecrypt
Base64Decode
CalcDecodeLength
N4CTPP13StackOverflowE
N4CTPP14StackUnderflowE
TemplateWrapper::TemplateWrapper(UINT_32, std::vector<std::__cxx11::basic_string<char> >)
virtual INT_32 FnGetPoText::Handler(CTPP::CDT*, UINT_32, CTPP::CDT&, CTPP::Logger&)
INT_32 TemplateWrapper::RenderTemplate(const string&, CTPP::CDT&, std::__cxx11::string&)
13FnNvtlInArray
8FnGetUri
16FnGetExternalUri
10FnGetTitle
11FnGetPoText
9CgiHelper
18NvtlRedirectHeader
void CgiHelper::EscapeHTMLCharacters(std::__cxx11::string&)
const string CgiHelper::GetCookie(const cgicc::CgiEnvironment&, const string&, std::__cxx11::string) const
const string CgiHelper::GetErrorTemplatePath(int)
void CgiHelper::SetCookie(const string&, const string&)
void CgiHelper::SanitizeFileName(std::__cxx11::string&)
void CgiHelper::DeleteUploadedFilesOnError()
void CgiHelper::ReadPostData()
CgiHelper::CgiHelper()
static CgiHelper* CgiHelper::GetInstance()
void CgiHelper::SendResponse(int, const string&)
void CgiHelper::SendTmplResponse(int, CTPP::CDT&)
void CgiHelper::SendErrorResponse(int, CTPP::CDT&)
N5cgicc6FCgiIOE
webui_factory_reset
GCC: (GNU) 8.2.0
-I /opt/nvtl/builds/release2/SDX55_4.05.1.1_OS_4.14_App_4.006/MiFiOS2/source/core/watchdog/inc
-I /opt/nvtl/builds/release2/SDX55_4.05.1.1_OS_4.14_App_4.006/MiFiOS2/source/core/config
-I /opt/nvtl/builds/release2/SDX55_4.05.1.1_OS_4.14_App_4.006/MiFiOS2/source/core/settings/inc
-I /opt/nvtl/builds/release2/SDX55_4.05.1.1_OS_4.14_App_4.006/MiFiOS2/source/core/bluetooth/inc
-I /opt/nvtl/builds/release2/SDX55_4.05.1.1_OS_4.14_App_4.006/MiFiOS2/source/apps_framework/webui_framework/src
-I /opt/nvtl/builds/release2/SDX55_4.05.1.1_OS_4.14_App_4.006/MiFiOS2/source/core/msgbus/inc
-I /opt/nvtl/builds/release2/SDX55_4.05.1.1_OS_4.14_App_4.006/MiFiOS2/source/core/common/include
-I /opt/nvtl/builds/release2/SDX55_4.05.1.1_OS_4.14_App_4.006/MiFiOS2/source/core/common
-I /opt/nvtl/builds/release2/SDX55_4.05.1.1_OS_4.14_App_4.006/MiFiOS2/build/products/duvel
-I /opt/nvtl/builds/release2/SDX55_4.05.1.1_OS_4.14_App_4.006/MiFiOS2/source/core/ans/inc
-I /opt/nvtl/builds/release2/SDX55_4.05.1.1_OS_4.14_App_4.006/MiFiOS2/source/core/fota/inc
-I /opt/nvtl/builds/release2/SDX55_4.05.1.1_OS_4.14_App_4.006/MiFiOS2/source/core/dus/common
-I /opt/nvtl/builds/release2/SDX55_4.05.1.1_OS_4.14_App_4.006/MiFiOS2/source/core/logging/inc
-I /opt/nvtl/builds/release2/SDX55_4.05.1.1_OS_4.14_App_4.006/MiFiOS2/source/core/xmldata/inc
-I /opt/nvtl/builds/release2/SDX55_4.05.1.1_OS_4.14_App_4.006/MiFiOS2/source/core/modem2/inc
-I /opt/nvtl/builds/release2/SDX55_4.05.1.1_OS_4.14_App_4.006/MiFiOS2/build/platforms/SDX55/Output/platform-duvel_LE14/sysroot-target/usr/include
-I /opt/nvtl/builds/release2/SDX55_4.05.1.1_OS_4.14_App_4.006/MiFiOS2/build/platforms/SDX55/Output/platform-duvel_LE14/sysroot-target/usr/include/libxml2
-I /opt/nvtl/builds/release2/SDX55_4.05.1.1_OS_4.14_App_4.006/MiFiOS2/source/core/factory_reset/inc
-I /opt/nvtl/builds/release2/SDX55_4.05.1.1_OS_4.14_App_4.006/MiFiOS2/source/apps_framework/webui_framework/inc
-I /opt/nvtl/builds/release2/SDX55_4.05.1.1_OS_4.14_App_4.006/MiFiOS2/source/apps_framework/ui_support
-I /opt/nvtl/builds/release2/SDX55_4.05.1.1_OS_4.14_App_4.006/MiFiOS2/build/platforms/SDX55/Output/platform-duvel_LE14/sysroot-target/include
-iprefix /opt/gcc-8.2.0/poky/build/tmp-glibc/sysroots/x86_64/usr/bin/arm-oe-linux-gnueabi/../../lib/arm-oe-linux-gnueabi/gcc/arm-oe-linux-gnueabi/8.2.0/
-D __linux__
-D MODULE_NAME="WEBUI"
-isystem /opt/nvtl/builds/release2/SDX55_4.05.1.1_OS_4.14_App_4.006/MiFiOS2/build/platforms/SDX55/Output/platform-duvel_LE14/sysroot-target/include
-isystem /opt/nvtl/builds/release2/SDX55_4.05.1.1_OS_4.14_App_4.006/MiFiOS2/build/platforms/SDX55/Output/platform-duvel_LE14/sysroot-target/usr/include
/opt/nvtl/builds/release2/SDX55_4.05.1.1_OS_4.14_App_4.006/MiFiOS2/source/apps_framework/webui_framework/src/webui_api.c
-mfpu=neon
-mfloat-abi=hard
-mcpu=arm10tdmi
-mtls-dialect=gnu
-march=armv5t
-auxbase-strip webui_api.o
-Wno-write-strings
-Wno-unused-parameter
-Wno-sign-compare
-Wno-stringop-truncation
-Wstringop-overflow=0
-Wformat-overflow=0
-frecord-gcc-switches
/opt/nvtl/builds/release2/SDX55_4.05.1.1_OS_4.14_App_4.006/MiFiOS2/source/apps_framework/webui_framework/src/webui_settings.c
-auxbase-strip webui_settings.o
-D_GNU_SOURCE
/opt/nvtl/builds/release2/SDX55_4.05.1.1_OS_4.14_App_4.006/MiFiOS2/source/apps_framework/webui_framework/src/session.cc
-auxbase-strip session.o
/opt/nvtl/builds/release2/SDX55_4.05.1.1_OS_4.14_App_4.006/MiFiOS2/source/apps_framework/webui_framework/src/webui_security.c
-auxbase-strip webui_security.o
/opt/nvtl/builds/release2/SDX55_4.05.1.1_OS_4.14_App_4.006/MiFiOS2/source/apps_framework/webui_framework/src/template_wrapper.cc
-auxbase-strip template_wrapper.o
/opt/nvtl/builds/release2/SDX55_4.05.1.1_OS_4.14_App_4.006/MiFiOS2/source/apps_framework/webui_framework/src/cgi_helper.cc
-auxbase-strip cgi_helper.o
/opt/nvtl/builds/release2/SDX55_4.05.1.1_OS_4.14_App_4.006/MiFiOS2/source/apps_framework/webui_framework/src/fcgi_io.cc
-auxbase-strip fcgi_io.o
/opt/nvtl/builds/release2/SDX55_4.05.1.1_OS_4.14_App_4.006/MiFiOS2/source/apps_framework/webui_framework/src/webui_factory_reset.c
-auxbase-strip webui_factory_reset.o
gold 1.16
call_weak_fn
crtstuff.c
__TMC_LIST__
deregister_tm_clones
register_tm_clones
__do_global_dtors_aux
completed.11339
__do_global_dtors_aux_fini_array_entry
frame_dummy
__frame_dummy_init_array_entry
webui_api.c
__PRETTY_FUNCTION__.9155
__PRETTY_FUNCTION__.9181
__PRETTY_FUNCTION__.9168
__PRETTY_FUNCTION__.9194
__PRETTY_FUNCTION__.9208
__PRETTY_FUNCTION__.9221
__PRETTY_FUNCTION__.9233
__PRETTY_FUNCTION__.9248
__PRETTY_FUNCTION__.9260
__PRETTY_FUNCTION__.9272
__PRETTY_FUNCTION__.9298
__PRETTY_FUNCTION__.9323
__PRETTY_FUNCTION__.9336
__PRETTY_FUNCTION__.9350
__PRETTY_FUNCTION__.9362
__PRETTY_FUNCTION__.9374
__PRETTY_FUNCTION__.9311
__PRETTY_FUNCTION__.9385
__PRETTY_FUNCTION__.9396
__PRETTY_FUNCTION__.9407
__PRETTY_FUNCTION__.9418
__PRETTY_FUNCTION__.9429
__PRETTY_FUNCTION__.9441
__PRETTY_FUNCTION__.9455
__PRETTY_FUNCTION__.9285
__PRETTY_FUNCTION__.9469
__PRETTY_FUNCTION__.9482
__PRETTY_FUNCTION__.9494
__PRETTY_FUNCTION__.9507
__PRETTY_FUNCTION__.9519
__PRETTY_FUNCTION__.9531
__PRETTY_FUNCTION__.9544
__PRETTY_FUNCTION__.9558
__PRETTY_FUNCTION__.9581
__PRETTY_FUNCTION__.9595
__PRETTY_FUNCTION__.9619
__PRETTY_FUNCTION__.9628
__PRETTY_FUNCTION__.9637
__PRETTY_FUNCTION__.9647
__PRETTY_FUNCTION__.9656
__PRETTY_FUNCTION__.9661
__PRETTY_FUNCTION__.9666
__PRETTY_FUNCTION__.9672
__PRETTY_FUNCTION__.9680
__PRETTY_FUNCTION__.9688
__PRETTY_FUNCTION__.9694
__PRETTY_FUNCTION__.9703
__PRETTY_FUNCTION__.9710
__PRETTY_FUNCTION__.9715
__PRETTY_FUNCTION__.9720
__PRETTY_FUNCTION__.9725
__PRETTY_FUNCTION__.9730
__PRETTY_FUNCTION__.9735
__PRETTY_FUNCTION__.9741
__PRETTY_FUNCTION__.9749
__PRETTY_FUNCTION__.9757
webui_settings.c
webui_get_login_settings_impl.part.13
__PRETTY_FUNCTION__.9081
__PRETTY_FUNCTION__.9095
__PRETTY_FUNCTION__.9111
__PRETTY_FUNCTION__.9130
__PRETTY_FUNCTION__.9158
__PRETTY_FUNCTION__.9010
__PRETTY_FUNCTION__.9024
session.cc
_ZNSt7__cxx1112basic_stringIcSt11char_traitsIcESaIcEEC2EPKcRKS3_.isra.24
_GLOBAL__sub_I_session.cc
_ZZN11AuthSession14GetSessionSlotEvE19__PRETTY_FUNCTION__
_ZZN11AuthSession23IncrementFailedAttemptsE12webui_addr_tbE19__PRETTY_FUNCTION__
_ZZN11AuthSession11FindSessionERKNSt7__cxx1112basic_stringIcSt11char_traitsIcESaIcEEE12webui_addr_tiE19__PRETTY_FUNCTION__
_ZZN11AuthSession12RenewSessionE12webui_addr_tiE19__PRETTY_FUNCTION__
_ZZN11AuthSession13CreateSessionE12webui_addr_tiE19__PRETTY_FUNCTION__
_ZZN11AuthSession4InitERKNSt7__cxx1112basic_stringIcSt11char_traitsIcESaIcEEE12webui_addr_tS7_iE19__PRETTY_FUNCTION__
_ZZN11AuthSession16ValidatePasswordERKNSt7__cxx1112basic_stringIcSt11char_traitsIcESaIcEEEE19__PRETTY_FUNCTION__
_ZZN11AuthSession20ValidateSecurityInfoENSt7__cxx1112basic_stringIcSt11char_traitsIcESaIcEEEE19__PRETTY_FUNCTION__
_ZZN11AuthSession5LoginERKNSt7__cxx1112basic_stringIcSt11char_traitsIcESaIcEEEbbE19__PRETTY_FUNCTION__
_ZStL8__ioinit
_ZN4NVTLL8ENCODINGE
_ZN4NVTLL7RTL_DIRE
_ZN4NVTLL7LTR_DIRE
_ZN4NVTLL9LOCALEDIRE
_ZN4NVTLL10SYSPROFILEE
_ZN4NVTLL18SERVER_CONFIG_PATHE
_ZN4NVTLL12APP_BIN_PATHE
_ZN4NVTLL16CONFIG_FILE_PATHE
_ZN4NVTLL13APP_DATA_PATHE
_ZN4NVTLL18CONFIG_FILE_SUFFIXE
_ZN4NVTLL22PERSISTENT_FOLDER_PATHE
_ZN4NVTLL18UI_DEF_CONFIG_FILEE
_ZN4NVTLL14UI_CONFIG_FILEE
_ZN4NVTLL15ACL_CONFIG_FILEE
_ZN4NVTLL22ACE_DEFAULTS_FLAG_FILEE
_ZN4NVTLL22WEBUI_SITE_CONFIG_FILEE
_ZN4NVTLL22APP_CONFIGURATION_FILEE
_ZN4NVTLL27HOARDING_LINK_NAME_LOCATIONE
_ZN4NVTLL16MENU_LAYOUT_FILEE
_ZN4NVTLL15APP_MODULE_FILEE
_ZN4NVTLL17APP_TEMPLATE_FILEE
_ZN4NVTLL15DEBUG_LOGS_FILEE
_ZN4NVTLL24PREPARE_LOGS_SCRIPT_FILEE
_ZN4NVTLL17MODEL_STRING_FILEE
_ZN4NVTLL4AUTHE
_ZN4NVTLL5WEBUIE
_ZN4NVTLL9GPSSTATUSE
_ZN4NVTLL8UINATIVEE
_ZN4NVTLL10WEBSUPPORTE
_ZN4NVTLL7RESTAPIE
_ZN4NVTLL9UISUPPORTE
_ZN4NVTLL3ANSE
_ZN4NVTLL3DUSE
_ZN4NVTLL3DUAE
_ZN4NVTLL5DEVUIE
_ZN4NVTLL3PRIE
_ZN4NVTLL4WDCPE
_ZN4NVTLL4CDRAE
_ZN4NVTLL14SCREEN_SHARINGE
_ZN4NVTLL3LPME
_ZN4NVTLL6GLOBALE
_ZN4NVTLL5MODEME
_ZN4NVTLL4WIFIE
_ZN4NVTLL6MIFIOSE
_ZN4NVTL3WEBL6ABSENTE
_ZN4NVTL3WEBL7SESSIONE
_ZN4NVTL3WEBL7SERVICEE
_ZN4NVTL3WEBL45PREDEFINED_TEMPLATE_VARIABLE_BASE_ASSETS_PATHE
_ZN4NVTL3WEBL35PREDEFINED_TEMPLATE_VARIABLE_LOCALEE
_ZN4NVTL3WEBL38PREDEFINED_TEMPLATE_VARIABLE_HTML_LANGE
_ZN4NVTL3WEBL47PREDEFINED_TEMPLATE_VARIABLE_LANGUAGE_DIRECTIONE
_ZN4NVTL3WEBL45PREDEFINED_TEMPLATE_VARIABLE_HTTP_STATUS_CODEE
_ZN4NVTL3WEBL43PREDEFINED_TEMPLATE_VARIABLE_HTTP_ERROR_MSGE
_ZN4NVTL3WEBL37PREDEFINED_TEMPLATE_VARIABLE_CSS_LISTE
_ZN4NVTL3WEBL44PREDEFINED_TEMPLATE_VARIABLE_JAVASCRIPT_LISTE
_ZN4NVTL3WEBL44PREDEFINED_TEMPLATE_VARIABLE_PAGE_IDENTIFIERE
_ZN4NVTL3WEBL41PREDEFINED_TEMPLATE_VARIABLE_SECURE_TOKENE
_ZN4NVTL3WEBL41PREDEFINED_TEMPLATE_VARIABLE_IS_LOGGED_INE
_ZN4NVTL3WEBL40PREDEFINED_TEMPLATE_VARIABLE_MENU_LAYOUTE
_ZN4NVTL3WEBL47PREDEFINED_TEMPLATE_VARIABLE_SUBMISSION_SUCCESSE
_ZN4NVTL3WEBL39PREDEFINED_TEMPLATE_VARIABLE_SITE_TITLEE
_ZN4NVTL3WEBL39PREDEFINED_TEMPLATE_VARIABLE_MODEL_NAMEE
_ZN4NVTL3WEBL35PREDEFINED_TEMPLATE_VARIABLE_MOBILEE
_ZN4NVTL3WEBL37PREDEFINED_TEMPLATE_VARIABLE_HELP_URLE
_ZN4NVTL3WEBL41PREDEFINED_TEMPLATE_VARIABLE_PRODUCT_NAMEE
_ZN4NVTL3WEBL43PREDEFINED_TEMPLATE_VARIABLE_PRODUCT_NUMBERE
_ZN4NVTL3WEBL41PREDEFINED_TEMPLATE_VARIABLE_REDRIECT_URLE
_ZN4NVTL3WEBL43PREDEFINED_TEMPLATE_VARIABLE_IS_SMS_ENABLEDE
_ZN4NVTL3WEBL51PREDEFINED_TEMPLATE_VARIABLE_ADMIN_SETTINGS_ENABLEDE
_ZN4NVTL3WEBL48PREDEFINED_TEMPLATE_VARIABLE_IS_DEFAULT_PASSWORDE
_ZN4NVTL3WEBL54PREDEFINED_TEMPLATE_VARIABLE_IS_PROMPT_CHANGE_PASSWORDE
_ZN4NVTL3WEBL42PREDEFINED_TEMPLATE_VARIABLE_IS_SMS_LOCKEDE
_ZN4NVTL3WEBL44PREDEFINED_TEMPLATE_VARIABLE_IS_DEVICE_AGENTE
_ZN4NVTL3WEBL51PREDEFINED_TEMPLATE_VARIABLE_IS_MULTI_SIM_SUPPORTEDE
_ZL11auth_error_
webui_security.c
GetKeyBytes
__PRETTY_FUNCTION__.15455
__PRETTY_FUNCTION__.15467
__PRETTY_FUNCTION__.15430
__PRETTY_FUNCTION__.15481
__PRETTY_FUNCTION__.15446
__PRETTY_FUNCTION__.15438
template_wrapper.cc
_ZNSt7__cxx1112basic_stringIcSt11char_traitsIcESaIcEEC2EPKcRKS3_.isra.32
_Z10ItemExistsRN4CTPP3CDTES1_S1_.localalias.45
_GLOBAL__sub_I_template_wrapper.cc
_ZZN15TemplateWrapperC4EjSt6vectorINSt7__cxx1112basic_stringIcSt11char_traitsIcESaIcEEESaIS6_EEE19__PRETTY_FUNCTION__
_ZZN11FnGetPoText7HandlerEPN4CTPP3CDTEjRS1_RNS0_6LoggerEE19__PRETTY_FUNCTION__
_ZZN15TemplateWrapper14RenderTemplateERKNSt7__cxx1112basic_stringIcSt11char_traitsIcESaIcEEERN4CTPP3CDTERS5_E19__PRETTY_FUNCTION__
cgi_helper.cc
_ZNSt7__cxx1112basic_stringIcSt11char_traitsIcESaIcEE12_M_constructIPcEEvT_S7_St20forward_iterator_tag.constprop.157
_ZNSt7__cxx1112basic_stringIcSt11char_traitsIcESaIcEEC2EPKcRKS3_.isra.86
_GLOBAL__sub_I_cgi_helper.cc
_ZZN9CgiHelper20EscapeHTMLCharactersERNSt7__cxx1112basic_stringIcSt11char_traitsIcESaIcEEEE19__PRETTY_FUNCTION__
_ZZNK9CgiHelper9GetCookieERKN5cgicc14CgiEnvironmentERKNSt7__cxx1112basic_stringIcSt11char_traitsIcESaIcEEES9_E19__PRETTY_FUNCTION__
_ZZN9CgiHelper20GetErrorTemplatePathB5cxx11EiE19__PRETTY_FUNCTION__
_ZZN9CgiHelper9SetCookieERKNSt7__cxx1112basic_stringIcSt11char_traitsIcESaIcEEES7_E19__PRETTY_FUNCTION__
_ZZN9CgiHelper16SanitizeFileNameERNSt7__cxx1112basic_stringIcSt11char_traitsIcESaIcEEEE19__PRETTY_FUNCTION__
_ZZN9CgiHelper26DeleteUploadedFilesOnErrorEvE19__PRETTY_FUNCTION__
_ZZN9CgiHelper12ReadPostDataEvE19__PRETTY_FUNCTION__
_ZZN9CgiHelperC4EvE19__PRETTY_FUNCTION__
_ZZN9CgiHelper11GetInstanceEvE19__PRETTY_FUNCTION__
_ZZN9CgiHelper12SendResponseEiRKNSt7__cxx1112basic_stringIcSt11char_traitsIcESaIcEEEE19__PRETTY_FUNCTION__
_ZZN9CgiHelper16SendTmplResponseEiRN4CTPP3CDTEE19__PRETTY_FUNCTION__
_ZZN9CgiHelper17SendErrorResponseEiRN4CTPP3CDTEE19__PRETTY_FUNCTION__
fcgi_io.cc
_GLOBAL__sub_I_fcgi_io.cc
_ZStL19piecewise_construct
webui_factory_reset.c
__PRETTY_FUNCTION__.8992
__FRAME_END__
__dso_handle
_ZTCN5cgicc6FCgiIOE4_So
__TMC_END__
_DYNAMIC
_GLOBAL_OFFSET_TABLE_
__gmon_start__
_ITM_deregisterTMCloneTable
_ITM_registerTMCloneTable
__cxa_finalize
webui_get_https_settings
mifi_dbg_get_level_name
mifi_dbg_log
settings_get_setting
mifi_dbg_syslog
webui_get_https_enabled
webui_set_https_settings
settings_set_setting
webui_set_https_enabled
webui_get_https_port
webui_set_https_port
webui_clear_https_settings
webui_set_remote_admin_conf
MsgBusSetBinary
webui_is_running
msgq_does_queue_exist
webui_set_log_settings
webui_get_log_settings
webui_get_i18n_settings
webui_get_login_settings
webui_get_network_technology_list
webui_get_app_properties
msgq_send_sync
webui_get_app_features
webui_get_app_configurations
webui_set_login_settings
webui_get_country_code
webui_get_uri_data
webui_get_common_features
webui_get_common_configurations
webui_get_network_technology_options
webui_get_apn_list
webui_get_supported_languages
webui_set_i18n_settings
webui_get_welcome_notification
webui_set_welcome_notification
webui_get_automatic_network_selection
webui_set_automatic_network_selection
webui_set_advanced_settings
webui_get_advanced_settings
webui_get_lan_settings
webui_get_customer_support_info
webui_get_external_uri_data
webui_get_site_title_info
webui_get_error_string
webui_get_software_update_status
webui_get_software_update_settings
webui_set_software_update_settings
webui_get_software_update_custom_msgs
webui_su_check_for_update
webui_su_start_install
webui_su_postpone_install
webui_get_last_software_update_status
webui_get_software_installation_duration
webui_set_diagnostic_alert_choice
webui_get_profile_update_status
webui_dm_need_hfa_session
webui_dm_start_hfa_session
webui_dm_cancel_hfa_session
webui_dm_retry_hfa_operation
webui_dm_start_profile_update
webui_dm_cancel_profile_update
webui_dm_user_confirmed_ok
webui_dm_get_sim_restriction_status
webui_dm_perform_sim_unlock
webui_get_macid_from_ipaddress
webui_get_welcome_notification_impl
xmldata_getint32
webui_get_automatic_network_selection_impl
webui_get_external_location_info_impl
xmldata_getstring
webui_get_apn_list_impl
xmldata_getcount
webui_get_customer_support_section_info_impl
xmldata_getuint32
webui_get_network_technology_list_impl
webui_get_supported_languages_impl
webui_get_log_settings_impl
xmldata_getuint32_default
webui_get_lan_settings_impl
webui_get_advanced_settings_impl
webui_set_log_settings_impl
xmldata_setuint32
xmldata_save
MsgBusSetInt32
webui_set_advanced_settings_impl
webui_set_https_enabled_impl
webui_set_https_port_impl
webui_get_i18n_settings_impl
xmldata_getstring_default
webui_set_i18n_settings_impl
xmldata_setstring
webui_set_https_settings_impl
webui_get_https_settings_impl
webui_get_https_enabled_impl
webui_get_https_port_impl
AesDecrypt
AesEncrypt
snprintf
webui_get_login_settings_impl
webui_set_login_settings_impl
webui_set_welcome_notification_impl
xmldata_setint32
webui_set_automatic_network_selection_impl
webui_get_site_title_info_impl
initialize_settings
_ZNKSt5ctypeIcE8do_widenEc
_ZN11AuthSessionD2Ev
_ZTV11AuthSession
_ZN11AuthSessionD1Ev
_ZN11AuthSessionD0Ev
_ZN11AuthSessionC2Ev
_ZN11AuthSessionC1Ev
_ZN11AuthSession14GetInetAddressEP12webui_addr_t
_ZNK11AuthSession16GetLoginAttemptsEv
_ZNK11AuthSession27GetSecurityQuestionAttemptsEv
_ZN11AuthSession8LoggedOnERb
_ZN11AuthSession12SetTimestampEl
clock_gettime
_ZN11AuthSession8GetErrorEi
_ZN11AuthSession20DumpBlockedAddressesENSt7__cxx1112basic_stringIcSt11char_traitsIcESaIcEEE
inet_ntop
_ZSt16__ostream_insertIcSt11char_traitsIcEERSt13basic_ostreamIT_T0_ES6_PKS3_i
_ZNSo9_M_insertIlEERSoT_
_ZNSo9_M_insertImEERSoT_
_ZNSo3putEc
_ZNSo5flushEv
_ZNKSt5ctypeIcE13_M_widen_initEv
_ZSt16__throw_bad_castv
_ZSt4cout
__aeabi_unwind_cpp_pr0
_ZN11AuthSession12DumpSessionsENSt7__cxx1112basic_stringIcSt11char_traitsIcESaIcEEE
_ZNSt9basic_iosIcSt11char_traitsIcEE5clearESt12_Ios_Iostate
_ZN11AuthSession14GetSessionSlotEv
sem_trywait
sem_post
_ZNK11AuthSession11HasTimedOutEP15webui_session_t
_ZN11AuthSession18GetNewSubmissionIdERi
_ZN11AuthSession17ClearSubmissionIdEi
_ZNK11AuthSession19IsValidSubmissionIdEi
_ZN11AuthSession13WriteToSyslogEPc12webui_addr_t
_ZN11AuthSession6LogoutEv
_ZN11AuthSession23IncrementFailedAttemptsE12webui_addr_tb
_ZNSt7__cxx1112basic_stringIcSt11char_traitsIcESaIcEE12_M_constructIPKcEEvT_S8_St20forward_iterator_tag
_ZNSt7__cxx1112basic_stringIcSt11char_traitsIcESaIcEE9_M_createERjj
_ZSt19__throw_logic_errorPKc
_ZNK11AuthSession12GetSessionIdB5cxx11Ev
_ZN11AuthSession11FindSessionERKNSt7__cxx1112basic_stringIcSt11char_traitsIcESaIcEEE12webui_addr_ti
_ZN11AuthSession11MakeShaHashERKNSt7__cxx1112basic_stringIcSt11char_traitsIcESaIcEEE
sha_init
sha_update
sha_final
_ZN11AuthSession18RenewSecurityTokenEv
__cxa_end_cleanup
__gxx_personality_v0
_ZN11AuthSession16GetSecurityTokenB5cxx11Eb
_ZN11AuthSession12RenewSessionE12webui_addr_ti
_ZN11AuthSession13CreateSessionE12webui_addr_ti
_ZN11AuthSession4InitERKNSt7__cxx1112basic_stringIcSt11char_traitsIcESaIcEEE12webui_addr_tS7_i
_ZNSt7__cxx1112basic_stringIcSt11char_traitsIcESaIcEE9_M_assignERKS4_
__errno_location
strerror
_ZN11AuthSession16ValidatePasswordERKNSt7__cxx1112basic_stringIcSt11char_traitsIcESaIcEEE
_ZNSt7__cxx1112basic_stringIcSt11char_traitsIcESaIcEE9_M_appendEPKcj
_ZSt20__throw_length_errorPKc
_ZN11AuthSession20ValidateSecurityInfoENSt7__cxx1112basic_stringIcSt11char_traitsIcESaIcEEE
_ZNSt7__cxx1112basic_stringIcSt11char_traitsIcESaIcEE12_M_constructIPcEEvT_S7_St20forward_iterator_tag
_ZN11AuthSession13CheckPasscodeERKNSt7__cxx1112basic_stringIcSt11char_traitsIcESaIcEEEb
_ZN11AuthSession5LoginERKNSt7__cxx1112basic_stringIcSt11char_traitsIcESaIcEEEbb
_ZNSt8ios_base4InitC1Ev
__aeabi_atexit
_ZNSt8ios_base4InitD1Ev
_ZNSt7__cxx1112basic_stringIcSt11char_traitsIcESaIcEED1Ev
_ZTS11AuthSession
_ZTI11AuthSession
_ZTVN10__cxxabiv117__class_type_infoE
SHA256_Init
SHA256_Update
SHA256_Final
EVP_CIPHER_CTX_new
EVP_CIPHER_CTX_reset
EVP_aes_256_cbc
EVP_EncryptInit_ex
EVP_EncryptUpdate
EVP_EncryptFinal_ex
fmemopen
BIO_f_base64
BIO_new_fp
BIO_push
BIO_set_flags
BIO_write
BIO_ctrl
BIO_free_all
EVP_CIPHER_CTX_free
BIO_read
EVP_DecryptInit_ex
EVP_DecryptUpdate
EVP_DecryptFinal_ex
_ZNK13FnNvtlInArray7GetNameEv
_ZNK8FnGetUri7GetNameEv
_ZNK16FnGetExternalUri7GetNameEv
_ZNK10FnGetTitle7GetNameEv
_ZNK11FnGetPoText7GetNameEv
_ZN11FnGetPoTextD2Ev
_ZN4CTPP14SyscallHandlerD2Ev
_ZTV11FnGetPoText
_ZN11FnGetPoTextD1Ev
_ZN11FnGetPoTextD0Ev
_ZN10FnGetTitleD2Ev
_ZTV10FnGetTitle
_ZN10FnGetTitleD1Ev
_ZN10FnGetTitleD0Ev
_ZN16FnGetExternalUriD2Ev
_ZTV16FnGetExternalUri
_ZN16FnGetExternalUriD1Ev
_ZN16FnGetExternalUriD0Ev
_ZN8FnGetUriD2Ev
_ZTV8FnGetUri
_ZN8FnGetUriD1Ev
_ZN8FnGetUriD0Ev
_ZN13FnNvtlInArrayD2Ev
_ZTV13FnNvtlInArray
_ZN13FnNvtlInArrayD1Ev
_ZN13FnNvtlInArrayD0Ev
_ZN15TemplateWrapperC2Ej
_ZN15TemplateWrapperC1Ej
_ZN15TemplateWrapperC2EjSt6vectorINSt7__cxx1112basic_stringIcSt11char_traitsIcESaIcEEESaIS6_EE
_ZSt17__throw_bad_allocv
__cxa_begin_catch
__cxa_rethrow
__cxa_end_catch
_ZN15TemplateWrapperC1EjSt6vectorINSt7__cxx1112basic_stringIcSt11char_traitsIcESaIcEEESaIS6_EE
_ZN15TemplateWrapper27InstallUserDefinedFunctionsERN4CTPP14SyscallFactoryE
_ZN4CTPP14SyscallFactory15RegisterHandlerEPNS_14SyscallHandlerE
_ZN16FnGetExternalUri7HandlerEPN4CTPP3CDTEjRS1_RNS0_6LoggerE
_ZNK4CTPP3CDT9GetStringB5cxx11EPKc
_ZN4CTPP3CDTaSERKNSt7__cxx1112basic_stringIcSt11char_traitsIcESaIcEEE
_ZNSt7__cxx1112basic_stringIcSt11char_traitsIcESaIcEE10_M_replaceEjjPKcj
_ZN4CTPP6Logger5EmergEPKcz
_ZN8FnGetUri7HandlerEPN4CTPP3CDTEjRS1_RNS0_6LoggerE
_ZN10FnGetTitle7HandlerEPN4CTPP3CDTEjRS1_RNS0_6LoggerE
_Z10ItemExistsRN4CTPP3CDTES1_S1_
_ZNK4CTPP3CDT4SizeEv
_ZN4CTPP3CDTixEj
_ZNK4CTPP3CDT6ExistsERKNSt7__cxx1112basic_stringIcSt11char_traitsIcESaIcEEE
_ZNK4CTPP3CDT6GetCDTERKNSt7__cxx1112basic_stringIcSt11char_traitsIcESaIcEEE
_ZN4CTPP3CDTC1ERKS0_
_ZN4CTPP3CDTD1Ev
_ZN4CTPP3CDTixERKNSt7__cxx1112basic_stringIcSt11char_traitsIcESaIcEEE
_ZN13FnNvtlInArray7HandlerEPN4CTPP3CDTEjRS1_RNS0_6LoggerE
_ZNK4CTPP3CDT7GetTypeEv
_ZN4CTPP3CDTaSEi
_ZNK4CTPP3CDT6GetIntEv
_ZN4CTPP3CDTC1ERKNS0_8eValTypeE
_ZN4CTPP3CDTaSERKS0_
_ZN4CTPP6Logger5ErrorEPKcz
_ZN11FnGetPoText7HandlerEPN4CTPP3CDTEjRS1_RNS0_6LoggerE
dgettext
_ZNKSt7__cxx1112basic_stringIcSt11char_traitsIcESaIcEE7compareEPKc
_ZNSt8ios_baseC2Ev
_ZNSt9basic_iosIcSt11char_traitsIcEE4initEPSt15basic_streambufIcS1_E
_ZNSt6localeC1Ev
_ZNSolsEi
_ZNKSt7__cxx1112basic_stringIcSt11char_traitsIcESaIcEE4findEPKcjj
_ZNSt6localeD1Ev
_ZNSt8ios_baseD2Ev
_ZSt24__throw_out_of_range_fmtPKcz
_ZNSt7__cxx1118basic_stringstreamIcSt11char_traitsIcESaIcEED1Ev
_ZTTNSt7__cxx1118basic_stringstreamIcSt11char_traitsIcESaIcEEE
_ZTVSt9basic_iosIcSt11char_traitsIcEE
_ZTVNSt7__cxx1118basic_stringstreamIcSt11char_traitsIcESaIcEEE
_ZTVSt15basic_streambufIcSt11char_traitsIcEE
_ZTVNSt7__cxx1115basic_stringbufIcSt11char_traitsIcESaIcEEE
_ZN15TemplateWrapper14RenderTemplateERKNSt7__cxx1112basic_stringIcSt11char_traitsIcESaIcEEERN4CTPP3CDTERS5_
_ZNK4CTPP3CDT4DumpB5cxx11Ejb
_ZN4CTPP21StringOutputCollectorC1ERNSt7__cxx1112basic_stringIcSt11char_traitsIcESaIcEEE
_ZN4CTPP14SyscallFactoryC1Ej
_ZN4CTPP17STDLibInitializer11InitLibraryERNS_14SyscallFactoryE
_ZN4CTPP10StaticTextC1Ejj
_ZN4CTPP10StaticDataC1Ej
_ZN4CTPP9HashTableC1Ev
_ZN4CTPP13CTPP2CompilerC1ERNS_17VMOpcodeCollectorERNS_10StaticTextERNS_10StaticDataES4_RNS_9HashTableE
_ZN4CTPP21CTPP2FileSourceLoaderC1Ev
_ZN4CTPP21CTPP2FileSourceLoader14SetIncludeDirsERKSt6vectorINSt7__cxx1112basic_stringIcSt11char_traitsIcESaIcEEESaIS7_EE
_ZN4CTPP21CTPP2FileSourceLoader12LoadTemplateEPKc
_ZN4CTPP11CTPP2ParserC1EPNS_17CTPP2SourceLoaderEPNS_13CTPP2CompilerERKNSt7__cxx1112basic_stringIcSt11char_traitsIcESaIcEEERKbi
_ZN4CTPP11CTPP2Parser7CompileERKj
_ZN4CTPP17VMOpcodeCollector7GetCodeERj
_ZN4CTPP8VMDumperC1EjPKNS_13VMInstructionERKNS_10StaticTextERKNS_10StaticDataES6_RKNS_9HashTableE
_ZN4CTPP8VMDumper13GetExecutableERj
_ZN4CTPP12VMMemoryCoreC1EPKNS_12VMExecutableE
_ZN4CTPP2VMC1EPNS_14SyscallFactoryEjjjj
_ZN4CTPP2VM4InitEPKNS_12VMMemoryCoreEPNS_15OutputCollectorEPNS_6LoggerE
_ZN4CTPP2VM3RunEPKNS_12VMMemoryCoreEPNS_15OutputCollectorERjRNS_3CDTEPNS_6LoggerE
_ZN4CTPP2VMD1Ev
_ZN4CTPP16ReducedHashTableD1Ev
_ZN4CTPP15ReducedBitIndexD1Ev
_ZN4CTPP17ReducedStaticTextD1Ev
_ZN4CTPP17ReducedStaticDataD1Ev
_ZN4CTPP8VMDumperD1Ev
_ZN4CTPP11CTPP2ParserD1Ev
_ZN4CTPP21CTPP2FileSourceLoaderD1Ev
_ZN4CTPP13CTPP2CompilerD1Ev
_ZN4CTPP9HashTableD1Ev
_ZN4CTPP10StaticTextD1Ev
_ZN4CTPP10StaticDataD1Ev
_ZN4CTPP17VMOpcodeCollectorD1Ev
_ZN4CTPP17STDLibInitializer14DestroyLibraryERNS_14SyscallFactoryE
_ZN4CTPP14SyscallFactory13RemoveHandlerEPKc
_ZN4CTPP14SyscallFactoryD1Ev
_ZN4CTPP21StringOutputCollectorD1Ev
_ZNK4CTPP17CTPPUnixException5ErrNoEv
_ZN4CTPP11VMDebugInfoC1Ey
_ZNK4CTPP11VMDebugInfo7GetLineEv
_ZNK4CTPP11VMDebugInfo10GetLinePosEv
_ZNK4CTPP13IllegalOpcode9GetOpcodeEv
_ZNK4CTPP27CTPPParserOperatorsMismatch8ExpectedEv
_ZNK4CTPP27CTPPParserOperatorsMismatch5FoundEv
_ZTIN4CTPP13CTPPExceptionE
_ZTIN4CTPP17CTPPUnixExceptionE
_ZTIN4CTPP14CTPPLogicErrorE
_ZTIN4CTPP11VMExceptionE
_ZTIN4CTPP21ExecutionLimitReachedE
_ZTIN4CTPP14StackUnderflowE
_ZTIN4CTPP13StackOverflowE
_ZTIN4CTPP18CodeSegmentOverrunE
_ZTIN4CTPP14InvalidSyscallE
_ZTIN4CTPP13IllegalOpcodeE
_ZTIN4CTPP18CDTAccessExceptionE
_ZTIN4CTPP20CDTTypeCastExceptionE
_ZTIN4CTPP27CTPPParserOperatorsMismatchE
_ZTIN4CTPP21CTPPParserSyntaxErrorE
_ZTSN4CTPP13StackOverflowE
_ZTVN10__cxxabiv120__si_class_type_infoE
_ZTSN4CTPP14StackUnderflowE
_ZTS13FnNvtlInArray
_ZTI13FnNvtlInArray
_ZTS8FnGetUri
_ZTI8FnGetUri
_ZTS16FnGetExternalUri
_ZTI16FnGetExternalUri
_ZTS10FnGetTitle
_ZTI10FnGetTitle
_ZTS11FnGetPoText
_ZTI11FnGetPoText
_ZTIN4CTPP14SyscallHandlerE
_ZN4CTPP14SyscallHandler11InitHandlerERNS_3CDTE
_ZN4CTPP14SyscallHandler15PreExecuteSetupERNS_15OutputCollectorERNS_3CDTERKNS_17ReducedStaticTextERKNS_17ReducedStaticDataES7_RNS_6LoggerE
_ZNK4CTPP14SyscallHandler10GetVersionEv
_ZN4CTPP14SyscallHandler14DestroyHandlerERNS_3CDTE
_ZN18NvtlRedirectHeaderD2Ev
_ZN5cgicc18HTTPRedirectHeaderD2Ev
_ZTV18NvtlRedirectHeader
_ZN18NvtlRedirectHeaderD1Ev
_ZN18NvtlRedirectHeaderD0Ev
_ZNK18NvtlRedirectHeader6renderERSo
_ZN5cgicclsERSoRKNS_11MStreamableE
_ZN9CgiHelper12GetCurrentIpB5cxx11Ev
_ZN9CgiHelper19AuthSessionLoggedOnEv
_ZN9CgiHelper14GetAuthSessionERP11AuthSession
_ZN9CgiHelper13FormKeyExistsERKNSt7__cxx1112basic_stringIcSt11char_traitsIcESaIcEEE
_ZNSt4pairINSt7__cxx1112basic_stringIcSt11char_traitsIcESaIcEEES5_ED2Ev
_ZNSt4pairINSt7__cxx1112basic_stringIcSt11char_traitsIcESaIcEEES5_ED1Ev
_ZN9CgiHelper15SetTemplateRootERKNSt7__cxx1112basic_stringIcSt11char_traitsIcESaIcEEE
_ZN9CgiHelper14SetHttpVersionERKNSt7__cxx1112basic_stringIcSt11char_traitsIcESaIcEEE
_ZN9CgiHelper19SetLanguageFallbackERKNSt7__cxx1112basic_stringIcSt11char_traitsIcESaIcEEE
_ZN9CgiHelper17SetLanguageCookieERKNSt7__cxx1112basic_stringIcSt11char_traitsIcESaIcEEE
_ZN9CgiHelper15SetPageTemplateERKNSt7__cxx1112basic_stringIcSt11char_traitsIcESaIcEEE
_ZN9CgiHelper21SetTemplateStepsLimitEi
_ZN9CgiHelper20SendRedirectResponseERKNSt7__cxx1112basic_stringIcSt11char_traitsIcESaIcEEE
_ZN5cgicc18HTTPRedirectHeaderC2ERKNSt7__cxx1112basic_stringIcSt11char_traitsIcESaIcEEE
_ZN9CgiHelper14GetPostDataPtrB5cxx11Ev
_ZN9CgiHelper20EscapeHTMLCharactersERNSt7__cxx1112basic_stringIcSt11char_traitsIcESaIcEEE
_ZNSt7__cxx1112basic_stringIcSt11char_traitsIcESaIcEE7reserveEj
_ZNSt7__cxx1112basic_stringIcSt11char_traitsIcESaIcEE4swapERS4_
_ZN9CgiHelper23SessionIdExistsWithPOSTEv
_ZNSt6vectorIN5cgicc10HTTPCookieESaIS1_EED2Ev
_ZNSt6vectorIN5cgicc10HTTPCookieESaIS1_EED1Ev
_ZNK9CgiHelper9GetCookieERKN5cgicc14CgiEnvironmentERKNSt7__cxx1112basic_stringIcSt11char_traitsIcESaIcEEES9_
_ZN5cgicc10HTTPCookieC1ERKS0_
_ZNSt6vectorINSt7__cxx1112basic_stringIcSt11char_traitsIcESaIcEEESaIS5_EED2Ev
_ZNSt6vectorINSt7__cxx1112basic_stringIcSt11char_traitsIcESaIcEEESaIS5_EED1Ev
_ZNSt7__cxx1115basic_stringbufIcSt11char_traitsIcESaIcEED2Ev
_ZNSt7__cxx1115basic_stringbufIcSt11char_traitsIcESaIcEED1Ev
_ZN9CgiHelper20GetErrorTemplatePathB5cxx11Ei
_ZNSt7__cxx1115basic_stringbufIcSt11char_traitsIcESaIcEED0Ev
_ZNSt8_Rb_treeINSt7__cxx1112basic_stringIcSt11char_traitsIcESaIcEEESt4pairIKS5_S5_ESt10_Select1stIS8_ESt4lessIS5_ESaIS8_EE8_M_eraseEPSt13_Rb_tree_nodeIS8_E
_ZNSt8_Rb_treeINSt7__cxx1112basic_stringIcSt11char_traitsIcESaIcEEESt4pairIKS5_S5_ESt10_Select1stIS8_ESt4lessIS5_ESaIS8_EE16_M_insert_uniqueIS6_IS5_S5_EEES6_ISt17_Rb_tree_iteratorIS8_EbEOT_
_ZSt29_Rb_tree_insert_and_rebalancebPSt18_Rb_tree_node_baseS0_RS_
_ZSt18_Rb_tree_decrementPSt18_Rb_tree_node_base
_ZN9CgiHelper9SetCookieERKNSt7__cxx1112basic_stringIcSt11char_traitsIcESaIcEEES7_
_ZN9CgiHelper9SetHeaderERKNSt7__cxx1112basic_stringIcSt11char_traitsIcESaIcEEES7_
_ZNSt6vectorINSt7__cxx1112basic_stringIcSt11char_traitsIcESaIcEEESaIS5_EE17_M_realloc_insertIJRKS5_EEEvN9__gnu_cxx17__normal_iteratorIPS5_S7_EEDpOT_
_ZN9CgiHelper18AddPageIncludePathERKNSt7__cxx1112basic_stringIcSt11char_traitsIcESaIcEEE
_ZNSt6vectorINSt7__cxx1112basic_stringIcSt11char_traitsIcESaIcEEESaIS5_EE12emplace_backIJS5_EEEvDpOT_
_ZN9CgiHelper12RemoveCookieERKNSt7__cxx1112basic_stringIcSt11char_traitsIcESaIcEEE
_ZN9CgiHelper15GetStatusStringB5cxx11Ei
_ZNK9CgiHelper5GetIpB5cxx11ERKN5cgicc14CgiEnvironmentE
_ZN9CgiHelper16SanitizeFileNameERNSt7__cxx1112basic_stringIcSt11char_traitsIcESaIcEEE
_ZNKSt7__cxx1112basic_stringIcSt11char_traitsIcESaIcEE4findEcj
_ZNK9CgiHelper12GetFormValueERKNSt7__cxx1112basic_stringIcSt11char_traitsIcESaIcEEE
_ZN9CgiHelper26DeleteUploadedFilesOnErrorEv
_ZN9CgiHelper12ReadPostDataEv
_ZN5cgicc9FormEntryaSERKS0_
_ZN5cgicc8FormFileaSERKS0_
__lxstat
_ZNSt13basic_filebufIcSt11char_traitsIcEEC1Ev
_ZNSt13basic_filebufIcSt11char_traitsIcEE4openEPKcSt13_Ios_Openmode
_ZNKSt12__basic_fileIcE7is_openEv
_ZNK5cgicc8FormFile13writeToStreamERSo
_ZNSt13basic_filebufIcSt11char_traitsIcEE5closeEv
_ZNSt12__basic_fileIcED1Ev
_ZNSt14basic_ofstreamIcSt11char_traitsIcEED1Ev
_ZN5cgicc8FormFileD1Ev
_ZNSt13basic_filebufIcSt11char_traitsIcEED1Ev
_ZN5cgicc9FormEntryD1Ev
_ZTTSt14basic_ofstreamIcSt11char_traitsIcEE
_ZTVSt14basic_ofstreamIcSt11char_traitsIcEE
_ZTVSt13basic_filebufIcSt11char_traitsIcEE
_ZN9CgiHelperC2Ev
_ZN5cgicc5CgiccC1EPNS_8CgiInputE
_ZN5cgicc14CgiEnvironmentaSERKS0_
_Z18GetIPAddressFamilyRKNSt7__cxx1112basic_stringIcSt11char_traitsIcESaIcEEEPi
inet_pton
_ZN5cgicc14CgiEnvironmentD1Ev
_ZN5cgicc5CgiccD1Ev
_ZTV9CgiHelper
_ZN9CgiHelperC1Ev
_ZN9CgiHelper11GetInstanceEv
_ZN9CgiHelper9pInstanceE
_ZN9CgiHelperD2Ev
_ZN9CgiHelperD1Ev
_ZN9CgiHelperD0Ev
_ZN9CgiHelper12SendResponseEiRKNSt7__cxx1112basic_stringIcSt11char_traitsIcESaIcEEE
_ZN5cgicc18HTTPResponseHeaderC1ERKNSt7__cxx1112basic_stringIcSt11char_traitsIcESaIcEEEiS8_
_ZN5cgicc18HTTPResponseHeader9addHeaderERKNSt7__cxx1112basic_stringIcSt11char_traitsIcESaIcEEES8_
_ZN5cgicc10HTTPCookieC1ERKNSt7__cxx1112basic_stringIcSt11char_traitsIcESaIcEEES8_S8_S8_mS8_b
_ZN5cgicc18HTTPResponseHeader9setCookieERKNS_10HTTPCookieE
_ZN5cgicc10HTTPCookieD1Ev
_ZSt18_Rb_tree_incrementPSt18_Rb_tree_node_base
_ZN5cgicc18HTTPResponseHeaderD1Ev
_ZN9CgiHelper16SendTmplResponseEiRN4CTPP3CDTE
_ZN9CgiHelper17SendErrorResponseEiRN4CTPP3CDTE
_ZTS9CgiHelper
_ZTI9CgiHelper
_ZTS18NvtlRedirectHeader
_ZTI18NvtlRedirectHeader
_ZTIN5cgicc18HTTPRedirectHeaderE
_ZN5cgicc6FCgiIO4readEPcj
FCGX_GetStr
_ZN5cgicc6FCgiIO3errEv
_ZNSt8_Rb_treeINSt7__cxx1112basic_stringIcSt11char_traitsIcESaIcEEESt4pairIKS5_S5_ESt10_Select1stIS8_ESt4lessIS5_ESaIS8_EE24_M_get_insert_unique_posERS7_
_ZNSt8_Rb_treeINSt7__cxx1112basic_stringIcSt11char_traitsIcESaIcEEESt4pairIKS5_S5_ESt10_Select1stIS8_ESt4lessIS5_ESaIS8_EE22_M_emplace_hint_uniqueIJRKSt21piecewise_construct_tSt5tupleIJOS5_EESJ_IJEEEEESt17_Rb_tree_iteratorIS8_ESt23_Rb_tree_const_iteratorIS8_EDpOT_
_ZN5cgicc6FCgiIO6getenvB5cxx11EPKc
_ZNSt8_Rb_treeINSt7__cxx1112basic_stringIcSt11char_traitsIcESaIcEEESt4pairIKS5_S5_ESt10_Select1stIS8_ESt4lessIS5_ESaIS8_EE7_M_copyINSE_11_Alloc_nodeEEEPSt13_Rb_tree_nodeIS8_EPKSI_PSt18_Rb_tree_node_baseRT_
_ZN5cgicc6FCgiIOD2Ev
_ZN14fcgi_streambufD1Ev
_ZN5cgicc8CgiInputD2Ev
_ZN5cgicc6FCgiIOD1Ev
_ZTVN5cgicc6FCgiIOE
_ZN5cgicc6FCgiIOC2ERK12FCGX_Request
_ZN14fcgi_streambufC1EP11FCGX_Stream
_ZNSt9basic_iosIcSt11char_traitsIcEE5rdbufEPSt15basic_streambufIcS1_E
__cxa_allocate_exception
_ZNSt13runtime_errorC1EPKc
__cxa_throw
__cxa_free_exception
_ZTVN5cgicc8CgiInputE
_ZNSt13runtime_errorD1Ev
_ZTISt13runtime_error
_ZN5cgicc6FCgiIOC1ERK12FCGX_Request
_ZN5cgicc6FCgiIOC2ERKS0_
_ZN5cgicc6FCgiIOC1ERKS0_
_ZTv0_n12_N5cgicc6FCgiIOD1Ev
_ZThn4_N5cgicc6FCgiIOD1Ev
_ZN5cgicc6FCgiIOD0Ev
_ZThn4_N5cgicc6FCgiIOD0Ev
_ZTv0_n12_N5cgicc6FCgiIOD0Ev
_ZTSN5cgicc6FCgiIOE
_ZTIN5cgicc6FCgiIOE
_ZTTN5cgicc6FCgiIOE
_ZTVN10__cxxabiv121__vmi_class_type_infoE
_ZTIN5cgicc8CgiInputE
webui_factory_reset
initialize_factory_reset_func
__bss_start
.init_array
.fini_array
.ARM.exidx
.comment
.rel.plt
.ARM.attributes
.eh_frame_hdr
.gnu.version_r
.data.rel.ro
.rel.dyn
.gnu.version
.note.gnu.gold-version
.data.rel.ro.local
.GCC.command.line
.eh_frame
.tm_clone_table
.note.gnu.build-id
.gnu.version_d
.dynamic
.ARM.extab
.shstrtab
