__gmon_start__
_ITM_deregisterTMCloneTable
_ITM_registerTMCloneTable
__cxa_finalize
GLIBC_2.4
libc.so.6
libconfiguration_module.so
_ZNKSt5ctypeIcE8do_widenEc
sys_setWiFiPrimaryProfileEnabled
mifi_dbg_get_level_name
mifi_dbg_syslog
mifi_dbg_log
sys_setWiFiGuestProfileEnabled
__aeabi_unwind_cpp_pr0
libgcc_s.so.1
sys_getWiFiPrimaryProfileEnabled
sys_getWiFiGuestProfileEnabled
_Z30GetGoldenRecordWrappedResponseP4NodeRNSt7__cxx1112basic_stringIcSt11char_traitsIcESaIcEEE
_ZN18ConfigurationAgent23GetGoldenRecordResponseEP4NodeRNSt7__cxx1112basic_stringIcSt11char_traitsIcESaIcEEE
_ZNSt7__cxx1112basic_stringIcSt11char_traitsIcESaIcEE9_M_appendEPKcj
GLIBCXX_3.4.21
libstdc++.so.6
GLIBCXX_3.4
__cxa_end_cleanup
CXXABI_1.3
__gxx_personality_v0
_Z35GetDataUsageSettingsWrappedResponseP4NodeRNSt7__cxx1112basic_stringIcSt11char_traitsIcESaIcEEE
_ZN18ConfigurationAgent28GetDataUsageSettingsResponseEP4NodeRNSt7__cxx1112basic_stringIcSt11char_traitsIcESaIcEEE
_Z33GetDataUsageEventsWrappedResponseP4NodeRNSt7__cxx1112basic_stringIcSt11char_traitsIcESaIcEEE
_ZN18ConfigurationAgent26GetDataUsageEventsResponseEP4NodeRNSt7__cxx1112basic_stringIcSt11char_traitsIcESaIcEEE
_Z23GetIPSecWrappedResponseP4NodeRNSt7__cxx1112basic_stringIcSt11char_traitsIcESaIcEEE
_ZN18ConfigurationAgent16GetIPSecResponseEP4NodeRNSt7__cxx1112basic_stringIcSt11char_traitsIcESaIcEEE
_Z28GetIPSecEventWrappedResponseP4NodeRNSt7__cxx1112basic_stringIcSt11char_traitsIcESaIcEEE
_ZN18ConfigurationAgent21GetIPSecEventResponseEP4NodeRNSt7__cxx1112basic_stringIcSt11char_traitsIcESaIcEEE
_Z34GetIPSecVPNSettingsWrappedResponseP4NodeRNSt7__cxx1112basic_stringIcSt11char_traitsIcESaIcEEE
_ZN18ConfigurationAgent27GetIPSecVPNSettingsResponseEP4NodeRNSt7__cxx1112basic_stringIcSt11char_traitsIcESaIcEEE
_ZNSt7__cxx1112basic_stringIcSt11char_traitsIcESaIcEE9_M_createERjj
_ZSt19__throw_logic_errorPKc
_Z15GetImeiResponseP4NodeRNSt7__cxx1112basic_stringIcSt11char_traitsIcESaIcEEE
sys_getHardwareInfo
_ZNSt7__cxx1112basic_stringIcSt11char_traitsIcESaIcEE9_M_assignERKS4_
_ZSt20__throw_length_errorPKc
_Z30config_module_checkfile_existsPc
_ZNSt8ios_baseC2Ev
_ZNSt9basic_iosIcSt11char_traitsIcEE4initEPSt15basic_streambufIcS1_E
_ZNSt13basic_filebufIcSt11char_traitsIcEEC1Ev
_ZNSt13basic_filebufIcSt11char_traitsIcEE4openEPKcSt13_Ios_Openmode
_ZNSt9basic_iosIcSt11char_traitsIcEE5clearESt12_Ios_Iostate
_ZNSt13basic_filebufIcSt11char_traitsIcEE5closeEv
_ZNSt12__basic_fileIcED1Ev
_ZNSt6localeD1Ev
_ZNSt8ios_baseD2Ev
_ZNSt13basic_filebufIcSt11char_traitsIcEED1Ev
_ZTVSt9basic_iosIcSt11char_traitsIcEE
_ZTTSt14basic_ifstreamIcSt11char_traitsIcEE
_ZTVSt14basic_ifstreamIcSt11char_traitsIcEE
_ZTVSt13basic_filebufIcSt11char_traitsIcEE
_ZTVSt15basic_streambufIcSt11char_traitsIcEE
_ZN18ConfigurationAgent22InitializeSysInterfaceEv
sys_sdkInitialize
_ZN18ConfigurationAgent24UninitializeSysInterfaceEv
sys_sdkShutdown
_ZN18ConfigurationAgent17IsValidMacAddressEPKc
isxdigit
_ZN18ConfigurationAgent9IsValidIPEPc
inet_pton
_ZN18ConfigurationAgent32IsValidIPWithPrivateAddressRangeEPc
_ZN18ConfigurationAgent27IsvalidIpWithBroadcastRangeEPKc
_ZN18ConfigurationAgent9IPToInt32EPc
_ZN18ConfigurationAgent22IsNetworkOrBroadcastIpEPKc
_ZN18ConfigurationAgent16CheckSubnetMatchEPKcS1_S1_
inet_aton
_ZN18ConfigurationAgent23validateIpWithDhcpRangeEPKcS1_S1_
_ZN18ConfigurationAgent17IsValidIpWithDhcpEPKcS1_
_ZN18ConfigurationAgent16IsValidDhcpRangeEPKci
_ZN18ConfigurationAgent8GetMinIpEPcS0_
_ZN18ConfigurationAgent22IsContainsNonPrintableEPc
_ZN18ConfigurationAgent10IsHexValueEPc
_ZN18ConfigurationAgent26GetParsedGPSRemoteSettingsEv
sys_getGPSRemoteNMEA
_ZN18ConfigurationAgent25GetParsedGPSRemoteEnabledEv
_ZN18ConfigurationAgent32GetParsedGPSRemoteGlobalDeviceIDEv
_ZN18ConfigurationAgent15CheckPortRangesEiiii
_ZN18ConfigurationAgent29ValidateCarrierConnectionsURLEPKc
_Z22ValidateWanMgrHostNamePKc
_ZN18ConfigurationAgent14CheckIsFullURLENSt7__cxx1112basic_stringIcSt11char_traitsIcESaIcEEE
_ZNKSt7__cxx1112basic_stringIcSt11char_traitsIcESaIcEE4findEPKcjj
_ZN18ConfigurationAgent21CheckForValidSiteNameENSt7__cxx1112basic_stringIcSt11char_traitsIcESaIcEEE
regerror
_ZNKSt7__cxx1112basic_stringIcSt11char_traitsIcESaIcEE7compareEjjPKc
__aeabi_unwind_cpp_pr1
_ZN18ConfigurationAgent17isValidDateFormatEPKc
_ZN18ConfigurationAgent22SetMiFisharingSettingsEv
sys_setSambaEnabled
deviceui_set_file_sharing_display_setting_enabled
sys_setSambaGuestNetworkEnabled
sys_setSambaPrimaryNetworkEnabled
sys_setSambaFolderSettings
sys_setSambaHostname
sys_setSambaSettings
_Z22ConvertCarrierToStringPcS_
_Z19getConnectionstatus16sys_sim_status_e24sys_wan_service_status_e27sys_wan_connection_status_e
_Z18convertRatToString14sys_wan_tech_ePc
_ZN18ConfigurationAgent14SetAclCallbackEPFvPKciiE
_ZN18ConfigurationAgent16SaveErrorMessageERKNSt7__cxx1112basic_stringIcSt11char_traitsIcESaIcEEE
_ZN18ConfigurationAgent16SaveErrorMessageEPKcz
vsnprintf
_ZNSt7__cxx1112basic_stringIcSt11char_traitsIcESaIcEE10_M_replaceEjjPKcj
_ZN18ConfigurationAgent17CheckAppConflictsEiP16sys_router_app_ti
_ZN18ConfigurationAgent27CheckPortFilterAppConflictsEiP16sys_router_app_ti
_ZN18ConfigurationAgent36ValidateCarrierConnectionSettingsObjEv
_Z10validateIpPKc
_ZN18ConfigurationAgent22ValidateWanSettingsObjEv
_ZN18ConfigurationAgent32ValidateMobileNetworkSettingsObjEv
_Z26containsNonAsciiCharactersPc
_ZN18ConfigurationAgent42ValidateNetworkTechnology5GModeSettingsObjEv
_Z24validateNetworkTechnolgyi
_Z21validate5GDisableModeii
sys_getNR5GDisableMode
sys_getEnabledRadioTechnologies
_ZN18ConfigurationAgent20GetManualDNSSettingsEv
sys_getManualDNSSettings
_ZN18ConfigurationAgent14GetIpptEnabledEv
sys_getIPPassthroughEnabled
_ZN18ConfigurationAgent15GetIpptSettingsEv
sys_getIPPassthroughSettings
_ZN18ConfigurationAgent24GetAutoConnectVPNEnabledEv
sys_getAutoConnectVpnEnabled
_ZN18ConfigurationAgent20GetVpnConfigFileDataEv
sys_getOpenVpnConfigFileSettings
_ZN18ConfigurationAgent22ValidateVpnSettingsObjEv
sys_validateOpenvpnConfigFileSettings
_ZN18ConfigurationAgent14SetVpnSettingsEv
sys_setOpenVpnConfigFileSettings
sys_getVPNSettings
sys_setVPNSettings
_ZN18ConfigurationAgent19GetManualDNSEnabledEv
sys_getManualDNSEnabled
_ZN18ConfigurationAgent13GetGPSEnabledEv
sys_getGPSPrivacyAgreementAccepted
sys_setGPSPrivacyAgreementAccepted
sys_getGPSEnabled
_ZN18ConfigurationAgent22GetNMEAOverWiFiEnabledEv
sys_getNMEAOverWiFiEnabled
_ZN18ConfigurationAgent14GetGPSShutDownEv
sys_getGPSStartupState
_ZN18ConfigurationAgent26GetGPSNMEAOverWiFiSettingsEv
sys_getNMEAOverWiFiSettings
_ZN18ConfigurationAgent18GetGPIOPin1EnabledEv
sys_getGpioPin1Enable
_ZN18ConfigurationAgent22GetGPIOIgnitionEnabledEv
sys_getIgnitionEnabled
_ZN18ConfigurationAgent30GetGPIOIgnitionShutdownEnabledEv
sys_getIgnitionShutdown
_ZN18ConfigurationAgent37GetGPIOIgnitionVoltageShutdownEnabledEv
sys_getIgnitionVoltageShutdown
_ZN18ConfigurationAgent41GetGPIOIgnitionBatteryTimeShutdownEnabledEv
sys_getIgnitionBatteryTimeShutdown
_ZN18ConfigurationAgent25GetIgnitionBatteryTimeoutEv
sys_getIgnitionBatteryTimeout
_ZN18ConfigurationAgent18GetIgnitionVoltageEv
sys_getIgnitionVoltage
_ZN18ConfigurationAgent13GPIODirectionEv
sys_getGPIODirection
_ZN18ConfigurationAgent25GetGpioPin1CustomSettingsEv
sys_getGpioPin1CustomSettings
_ZN18ConfigurationAgent12GetGPIOValueEv
sys_getGPIOValue
_ZN18ConfigurationAgent17GetGpioPin2EnableEv
sys_getGpioPin2Enable
_ZN18ConfigurationAgent17GPIOPin4DirectionEv
_ZN18ConfigurationAgent25GetGpioPin2CustomSettingsEv
sys_getGpioPin2CustomSettings
__errno_location
libpthread.so.0
_ZN18ConfigurationAgent23ValidateGPIOSettingsObjEv
__assert_fail
_Z32containsOnlyNumbersAndCharactersPc
snprintf
_ZN18ConfigurationAgent16GetGPIOPin4ValueEv
_ZN18ConfigurationAgent27GetIPv6TransportModeEnabledEv
sys_getIPv6TransparentModeEnabled
_ZN18ConfigurationAgent24GetVPNPassThroughEnabledEv
sys_getVPNPassthroughEnabled
_ZN18ConfigurationAgent13GetDMZEnabledEv
sys_getDMZEnabled
_ZN18ConfigurationAgent14GetDMZSettingsEv
sys_getDMZSettings
_ZN18ConfigurationAgent20GetICMPEnabledStatusEv
sys_getICMPResponseEnabledStatus
_ZN18ConfigurationAgent19GetMacFilterEnabledEv
sys_getMacFilterWhiteListEnabled
_ZN18ConfigurationAgent14GetIPv6EnabledEv
sys_getIPv6Enabled
_ZN18ConfigurationAgent16GetDHCPLeaseTimeEv
sys_getLANSettings
_ZN18ConfigurationAgent14GetLanSettingsEv
_ZN18ConfigurationAgent28ValidateManualDNSSettingsObjEv
_Z22isNetworkOrBroadcastIpPKc
_Z7isLanIpPKcS0_
_ZN18ConfigurationAgent14GetLogSettingsEv
webui_get_log_settings
_ZN18ConfigurationAgent14GetMacAddrListEv
_ZN18ConfigurationAgent17GetAllMacAddrListEv
sys_getAllDevicesList
_ZN18ConfigurationAgent22GetAllMacAddrListCountEv
_ZN18ConfigurationAgent11GetMacCountEv
_ZN18ConfigurationAgent20GetWhiteListMacCountEv
_ZN18ConfigurationAgent37ValidateWhiteListAndBlockedDevicesObjEv
strcasecmp
sys_deleteKnownDevice
_ZN18ConfigurationAgent24GetAdminPasswordSettingsEv
webui_get_login_settings
_ZN18ConfigurationAgent32GetAdminPasswordAdvancedSettingsEv
webui_get_advanced_settings
_ZN18ConfigurationAgent25GetAdminPasswordOnDisplayEv
deviceui_get_admin_password_enabled
_ZN18ConfigurationAgent21GetWifiCarrierEnabledEv
sys_getWiFiCarrierEnabled
_ZN18ConfigurationAgent26GetGuestWifiCarrierEnabledEv
sys_getWiFiGuestCarrierEnabled
_ZN18ConfigurationAgent14GetWifiEnabledEv
sys_getWiFiEnabled
_ZN18ConfigurationAgent23GetWifi24GHzBandProfileEv
_ZN18ConfigurationAgent22GetWifi5GHzBandProfileEv
_ZN18ConfigurationAgent33ValidateAdvancedWifiParametersObjEv
_ZN18ConfigurationAgent17GetWifiActivebandEv
sys_getWiFiActiveProfileType
_ZN18ConfigurationAgent17GetWifiMaxClientsEv
sys_getWiFiMaxClients
_ZN18ConfigurationAgent20GetWifi80211Mode5GHZEv
sys_getWiFiPrimaryProfile
_ZN18ConfigurationAgent18GetWifiChannel5GHZEv
_ZN18ConfigurationAgent20GetWifiBandwidth5GHZEv
_ZN18ConfigurationAgent14GetWifiProfileEv
_ZN18ConfigurationAgent21GetWifi80211Mode24GHZEv
_ZN18ConfigurationAgent19GetWifiChannel24GHZEv
_ZN18ConfigurationAgent18GetWifi5GHzProfileEv
_ZN18ConfigurationAgent26GetWifiInfoDisplaySettingsEv
deviceui_get_primary_wifi_info_display_settings
_ZN18ConfigurationAgent32GetWifiAllowChangesOnTouchScreenEv
deviceui_get_wifi_display_setting_enabled
_ZN18ConfigurationAgent19GetGuestWifiProfileEv
sys_getWiFiGuestProfile
_ZN18ConfigurationAgent25ValidateWiFiParametersObjEv
_ZN18ConfigurationAgent30ValidateGuestWifiParametersObjEv
_ZN18ConfigurationAgent23GetGuestWifi5GHzProfileEv
_ZN18ConfigurationAgent17SetWiFiParametersEv
sys_setWiFiPrimaryProfile
sys_applyWiFiProfiles
deviceui_set_wifi_display_setting_enabled
sys_setWiFiEnabled
sys_setWiFiMaxClients
deviceui_set_guest_wifi_info_display_settings
deviceui_set_primary_wifi_info_display_settings
sys_setWiFiGuestProfile
_ZN18ConfigurationAgent31GetGuestWifiInfoDisplaySettingsEv
deviceui_get_guest_wifi_info_display_settings
_ZN18ConfigurationAgent25GetPortFilteringAppsCountEv
_ZN18ConfigurationAgent32GetPortFilteringDefaultAppsCountEv
_ZN18ConfigurationAgent23GetPortFilteringEnabledEv
sys_getPortFilteringEnabled
_ZN18ConfigurationAgent28GetPortFilteringApplicationsEv
_ZN18ConfigurationAgent29GetPortForwardingApplicationsEv
_ZN18ConfigurationAgent26GetPortForwardingAppsCountEv
_ZN18ConfigurationAgent24GetPortForwardingEnabledEv
sys_getPortForwardingEnabled
_ZN18ConfigurationAgent23ValidateIPPTSettingsObjEv
_ZN18ConfigurationAgent27ValidateFirewallSettingsObjEv
_ZN18ConfigurationAgent14GetWanSettingsEv
sys_getWanMonitorSettings
_ZN18ConfigurationAgent22GetWanFailbackSettingsEv
sys_getWanFailbackSettings
_ZN18ConfigurationAgent16GetWanAutoSwitchEv
sys_getWanAutoSwitch
_ZN18ConfigurationAgent19GetReservedAddrListEv
_ZN18ConfigurationAgent25GetSoftwareUpdateSettingsEv
webui_get_software_update_settings
_ZN18ConfigurationAgent24GetReservedAddrListCountEv
_ZN18ConfigurationAgent36ValidateReservedIPAddressSettingsObjEv
_ZN18ConfigurationAgent15ResetObjectDataEv
_ZN18ConfigurationAgent15GetSambaEnabledEv
sys_getSambaEnabled
_ZN18ConfigurationAgent24GetSambaOnDisplayEnabledEv
deviceui_get_file_sharing_display_setting_enabled
_ZN18ConfigurationAgent16GetSambaSettingsEv
sys_getSambaSettings
_ZN18ConfigurationAgent23GetSambaFolderNamesListEv
_ZN18ConfigurationAgent24GetSambaFolderNamesCountEv
_ZN18ConfigurationAgent23GetAccelerometerEnabledEv
sys_getAccelerometerEnabled
_ZN18ConfigurationAgent28GetAccelerometerSettingsInfoEv
sys_getAccelerometerSettings
_ZN18ConfigurationAgent30GetMotionDetectionSettingsInfoEv
sys_getMotionDetectionSettings
_ZN18ConfigurationAgent32ValidateAccelerometerSettingsObjEv
_ZN18ConfigurationAgent14GetBrakingListEv
_ZN18ConfigurationAgent19GetBrakingListCountEv
_ZN18ConfigurationAgent19GetAccelerationListEv
_ZN18ConfigurationAgent24GetAccelerationListCountEv
_ZN18ConfigurationAgent16GetRightTurnListEv
_ZN18ConfigurationAgent21GetRightTurnListCountEv
_ZN18ConfigurationAgent15GetLeftTurnListEv
_ZN18ConfigurationAgent20GetLeftTurnListCountEv
_ZN18ConfigurationAgent15GetVerticalListEv
_ZN18ConfigurationAgent20GetVerticalListCountEv
_ZN18ConfigurationAgent16GetMagnitudeListEv
_ZN18ConfigurationAgent21GetMagnitudeListCountEv
_ZN18ConfigurationAgent22GetRemoteAccessEnabledEv
sys_getUSBSerialEnabled
_ZN18ConfigurationAgent24GetUSBSerialSettingsInfoEv
sys_getUSBSerialSettings
_ZN18ConfigurationAgent33GetUSBSerialThresholdSettingsInfoEv
sys_getUSBSerialThresholdSettings
_ZN18ConfigurationAgent26GetSambaPrimaryWifiEnabledEv
sys_getSambaPrimaryNetworkEnabled
_ZN18ConfigurationAgent24GetSambaGuestWifiEnabledEv
sys_getSambaGuestNetworkEnabled
_ZN18ConfigurationAgent16GetSambaHostNameEv
_ZN18ConfigurationAgent30ValidateMiFiSharingSettingsObjEv
_ZN18ConfigurationAgent22GetCellularDataEnabledEv
sys_getCellularDataEnabled
_ZN18ConfigurationAgent17GetRoamingEnabledEv
sys_getInternationalRoamingEnabled
_ZN18ConfigurationAgent23GetAutoSIMSwitchEnabledEv
sys_simGetSwitchMode
_ZN18ConfigurationAgent16GetCustomProfileEv
sys_getActiveModemProfileIndex
sys_getModemProfile
_ZN18ConfigurationAgent15GetModemProfileEv
_ZN18ConfigurationAgent22GetSIMMgmtProfileCountEv
_ZN18ConfigurationAgent17GetSIMMgmtProfileEv
_ZN18ConfigurationAgent29GetEnableAutoNetworkSelectionEv
webui_get_automatic_network_selection
_ZN18ConfigurationAgent6GetAPNEv
_ZN18ConfigurationAgent13GetActiveSlotEv
sys_getActiveSimSlot
_ZN18ConfigurationAgent16GetSIMConfigIMSIEv
sys_getActiveSim
_ZN18ConfigurationAgent30GetSignalQualityConfigurationsEv
sys_getSIMSigQltyConfigs
_ZN18ConfigurationAgent28GetSIMPriorityConfigurationsEv
sys_getSIMPriorityConfigs
_ZN18ConfigurationAgent17GetSIMSwitchRulesEv
sys_getSIMAutoAlgoConfigs
_ZN18ConfigurationAgent32ValidateSimManagementSettingsObjEv
sys_getNumSims
sys_getAllSimSlotsInfo
sys_getCustomApnFromDatabaseUsingIMSI
_ZN18ConfigurationAgent35ValidateSimConfigurationSettingsObjEv
_ZN18ConfigurationAgent20GetSIMConfigurationsEv
_ZN18ConfigurationAgent25GetSIMConfigurationsCountEv
_ZN18ConfigurationAgent23GetLocalGpsSettingsInfoEv
sys_getGPSLocalNMEA
_ZN18ConfigurationAgent27ValidateLocalGpsSettingsObjEv
_ZN18ConfigurationAgent21GetDeviceAgentEnabledEv
insg_mqtt_get_deviceagent_enabled
_ZN18ConfigurationAgent29GetDeviceAgentCheckinDurationEv
insg_mqtt_get_checkin_interval
_ZN18ConfigurationAgent27GetDeviceAgentHeartBeatTimeEv
insg_mqtt_get_ping_interval
_ZN18ConfigurationAgent30ValidateDeviceAgentSettingsObjEv
_ZN18ConfigurationAgent20GetNetworkTechnologyEv
_ZN18ConfigurationAgent19GetFiveGNetworkModeEv
_ZN18ConfigurationAgent19GetAppConfigurationEPKcS1_Pc
webui_get_app_configurations
_ZN18ConfigurationAgent19GetAppConfigurationEPKcS1_Pt
_ZN18ConfigurationAgent32ValidateAdminPasswordSettingsObjEv
_Z20containsNonPrintablePc
_Z21checkPasswordStrengthPc
_ZN18ConfigurationAgent19GetAppConfigurationEPKcS1_Pi
_ZN18ConfigurationAgent22ValidateLANSettingsObjEv
_Z24prefixToSubnetConversioniPc
_Z18validateSubnetMaskPKc
_ZN18ConfigurationAgent19GetAppConfigurationEPKcS1_Pb
_ZN18ConfigurationAgent23GetBluetoothEnabledInfoEv
sys_getBluetoothEnabled
_ZN18ConfigurationAgent28ValidateBluetoothSettingsObjEv
_Z21mapDeviceTypeToStringB5cxx1117sys_device_type_e
_ZN18ConfigurationAgent16GetDebugFilePathERNSt7__cxx1112basic_stringIcSt11char_traitsIcESaIcEEE
_ZN18ConfigurationAgent18DeleteDebugLogFileEv
dgettext
_ZN18ConfigurationAgent25GetPreCheckforUpdateStateEv
webui_get_software_update_status
_ZN18ConfigurationAgent19SendCmdToSerialPortEPcS0_
setlocale
sys_sendUSBSerialCommand
_ZN18ConfigurationAgent21SetUSBSerialEventInfoEP25config_serial_port_data_t
_Z14GetNodeElementNSt7__cxx1112basic_stringIcSt11char_traitsIcESaIcEEESt3mapIS4_P4NodeSt4lessIS4_ESaISt4pairIKS4_S7_EEE
_ZSt18_Rb_tree_incrementPSt18_Rb_tree_node_base
_ZNSt7__cxx1115basic_stringbufIcSt11char_traitsIcESaIcEED2Ev
_ZTVNSt7__cxx1115basic_stringbufIcSt11char_traitsIcESaIcEEE
_ZNSt7__cxx1115basic_stringbufIcSt11char_traitsIcESaIcEED1Ev
_Z20convertFloatToStringB5cxx11f
_ZNSt6localeC1Ev
_ZNSo9_M_insertIdEERSoT_
GLIBCXX_3.4.9
_ZNSt7__cxx1119basic_ostringstreamIcSt11char_traitsIcESaIcEED1Ev
_ZTTNSt7__cxx1119basic_ostringstreamIcSt11char_traitsIcESaIcEEE
_ZTVNSt7__cxx1119basic_ostringstreamIcSt11char_traitsIcESaIcEEE
_Z18convertIntToStringB5cxx11i
_ZNSolsEi
_Z19convertLongToStringB5cxx11y
_ZNSo9_M_insertIyEERSoT_
_ZNSt7__cxx1115basic_stringbufIcSt11char_traitsIcESaIcEED0Ev
_ZNSt6vectorINSt7__cxx1112basic_stringIcSt11char_traitsIcESaIcEEESaIS5_EED2Ev
_ZNSt6vectorINSt7__cxx1112basic_stringIcSt11char_traitsIcESaIcEEESaIS5_EED1Ev
_ZStplIcSt11char_traitsIcESaIcEENSt7__cxx1112basic_stringIT_T0_T1_EERKS8_PKS5_
_ZStplIcSt11char_traitsIcESaIcEENSt7__cxx1112basic_stringIT_T0_T1_EEPKS5_RKS8_
_ZNSt7__cxx1112basic_stringIcSt11char_traitsIcESaIcEE7reserveEj
_Z22GetCarrierLockResponseP4NodeRNSt7__cxx1112basic_stringIcSt11char_traitsIcESaIcEEE
sys_getNetworkSIMLockStatus
_ZNKSt7__cxx1112basic_stringIcSt11char_traitsIcESaIcEE7compareEPKc
_ZSt17__throw_bad_allocv
_ZStplIcSt11char_traitsIcESaIcEENSt7__cxx1112basic_stringIT_T0_T1_EERKS8_SA_
_ZN18ConfigurationAgent26GetGPIOInfoCheckinResponseERNSt7__cxx1112basic_stringIcSt11char_traitsIcESaIcEEE
_ZN18ConfigurationAgent30GetECompassInfoCheckinResponseERNSt7__cxx1112basic_stringIcSt11char_traitsIcESaIcEEE
sys_bluetooth_get_ecompass_coordinates
_ZN18ConfigurationAgent25GetGpsInfoCheckinResponseERNSt7__cxx1112basic_stringIcSt11char_traitsIcESaIcEEE
sys_getGPSStatus
sys_getGPSFixData
__aeabi_uldivmod
_Z20GetTimestampResponseP4NodeRNSt7__cxx1112basic_stringIcSt11char_traitsIcESaIcEEE
gettimeofday
is_miliconds
_Z33GetSoftwareUpdateSettingsResponseP4NodeRNSt7__cxx1112basic_stringIcSt11char_traitsIcESaIcEEE
_Z36GetCarrierConnectionSettingsResponseP4NodeRNSt7__cxx1112basic_stringIcSt11char_traitsIcESaIcEEE
_Z17GetClientResponseP4NodeRNSt7__cxx1112basic_stringIcSt11char_traitsIcESaIcEEE
sys_getMultiSimEnabled
dua_get_interface_data_usage_info
sys_getConnectedDeviceList
strptime
strftime
sys_getDataUsageLog
_Z18GetBatteryResponseP4NodeRNSt7__cxx1112basic_stringIcSt11char_traitsIcESaIcEEE
sys_getBatteryStatus
_Z14GetGpsResponseP4NodeRNSt7__cxx1112basic_stringIcSt11char_traitsIcESaIcEEE
_Z15GetWifiResponseP4NodeRNSt7__cxx1112basic_stringIcSt11char_traitsIcESaIcEEE
_Z15GetGpioResponseP4NodeRNSt7__cxx1112basic_stringIcSt11char_traitsIcESaIcEEE
_ZN18ConfigurationAgent35GetUsbSerialConnectedDeviceListInfoEP4NodeRNSt7__cxx1112basic_stringIcSt11char_traitsIcESaIcEEE
_Z31GetUsbSerialConnectedDeviceListP4NodeRNSt7__cxx1112basic_stringIcSt11char_traitsIcESaIcEEE
_Z19GetECompassResponseP4NodeRNSt7__cxx1112basic_stringIcSt11char_traitsIcESaIcEEE
_ZNSt6vectorIP4NodeSaIS1_EEC2ERKS3_
_ZNSt6vectorIP4NodeSaIS1_EEC1ERKS3_
_Z29GetReservedIpSettingsResponseP4NodeRNSt7__cxx1112basic_stringIcSt11char_traitsIcESaIcEEE
sys_getDHCPReservedAddrList
_Z28GetUSBSerialSettingsResponseP4NodeRNSt7__cxx1112basic_stringIcSt11char_traitsIcESaIcEEE
_Z14GetWanResponseP4NodeRNSt7__cxx1112basic_stringIcSt11char_traitsIcESaIcEEE
sys_getBrandingCarrier
sys_getCarrierModemProfile
sys_getCellularDataConnectionStats
sys_getCellularServiceStatus
sys_getCellularDataConnectionStatus
sys_getSIMStatus
sys_getCellularServiceStats
sys_getSubscriberInfo
sys_getCellular3GBand
_ZNSt7__cxx1112basic_stringIcSt11char_traitsIcESaIcEE6assignEPKc
sys_getCellularBand
sys_getCellular5GMode
sys_getCellular5GBand
sys_getCellular5GServiceStats
sys_getAnchorBandNumber
sys_getAnchorBandFrequency
sys_getBandWidth
sys_getCABandWidth
_ZNSt6vectorINSt7__cxx1112basic_stringIcSt11char_traitsIcESaIcEEESaIS5_EEaSERKS7_
__cxa_begin_catch
__cxa_rethrow
__cxa_end_catch
_ZNSt4pairIKNSt7__cxx1112basic_stringIcSt11char_traitsIcESaIcEEESt6vectorIS5_SaIS5_EEED2Ev
_ZNSt4pairIKNSt7__cxx1112basic_stringIcSt11char_traitsIcESaIcEEESt6vectorIS5_SaIS5_EEED1Ev
_ZNSt6vectorINSt7__cxx1112basic_stringIcSt11char_traitsIcESaIcEEESaIS5_EE17_M_realloc_insertEN9__gnu_cxx17__normal_iteratorIPS5_S7_EERKS5_
_ZNSt8_Rb_treeINSt7__cxx1112basic_stringIcSt11char_traitsIcESaIcEEESt4pairIKS5_PFviS5_EESt10_Select1stISA_ESt4lessIS5_ESaISA_EE8_M_eraseEPSt13_Rb_tree_nodeISA_E
_ZNSt8_Rb_treeINSt7__cxx1112basic_stringIcSt11char_traitsIcESaIcEEESt4pairIKS5_PFvP4NodeRS5_EESt10_Select1stISD_ESt4lessIS5_ESaISD_EE8_M_eraseEPSt13_Rb_tree_nodeISD_E
_ZNSt8_Rb_treeINSt7__cxx1112basic_stringIcSt11char_traitsIcESaIcEEESt4pairIKS5_P4NodeESt10_Select1stISA_ESt4lessIS5_ESaISA_EE8_M_eraseEPSt13_Rb_tree_nodeISA_E
_ZNSt8_Rb_treeINSt7__cxx1112basic_stringIcSt11char_traitsIcESaIcEEESt4pairIKS5_PFviS5_EESt10_Select1stISA_ESt4lessIS5_ESaISA_EE4findERS7_
_ZNSt8_Rb_treeINSt7__cxx1112basic_stringIcSt11char_traitsIcESaIcEEES5_St9_IdentityIS5_ESt4lessIS5_ESaIS5_EE8_M_eraseEPSt13_Rb_tree_nodeIS5_E
_ZNSt8_Rb_treeINSt7__cxx1112basic_stringIcSt11char_traitsIcESaIcEEES5_St9_IdentityIS5_ESt4lessIS5_ESaIS5_EE4findERKS5_
_ZNSt8_Rb_treeINSt7__cxx1112basic_stringIcSt11char_traitsIcESaIcEEES5_St9_IdentityIS5_ESt4lessIS5_ESaIS5_EE16_M_insert_uniqueERKS5_
_ZSt29_Rb_tree_insert_and_rebalancebPSt18_Rb_tree_node_baseS0_RS_
_ZSt18_Rb_tree_decrementPSt18_Rb_tree_node_base
_ZNSt8_Rb_treeINSt7__cxx1112basic_stringIcSt11char_traitsIcESaIcEEESt4pairIKS5_PFvP4NodeRS5_EESt10_Select1stISD_ESt4lessIS5_ESaISD_EE4findERS7_
_ZNSt8_Rb_treeINSt7__cxx1112basic_stringIcSt11char_traitsIcESaIcEEESt4pairIKS5_10datatype_eESt10_Select1stIS9_ESt4lessIS5_ESaIS9_EE8_M_eraseEPSt13_Rb_tree_nodeIS9_E
_ZNSt8_Rb_treeINSt7__cxx1112basic_stringIcSt11char_traitsIcESaIcEEESt4pairIKS5_10datatype_eESt10_Select1stIS9_ESt4lessIS5_ESaIS9_EE4findERS7_
_ZNSt8_Rb_treeINSt7__cxx1112basic_stringIcSt11char_traitsIcESaIcEEESt4pairIKS5_10datatype_eESt10_Select1stIS9_ESt4lessIS5_ESaIS9_EE5eraseERS7_
_ZSt18_Rb_tree_incrementPKSt18_Rb_tree_node_base
_ZSt28_Rb_tree_rebalance_for_erasePSt18_Rb_tree_node_baseRS_
_ZNSt8_Rb_treeINSt7__cxx1112basic_stringIcSt11char_traitsIcESaIcEEESt4pairIKS5_St6vectorIS5_SaIS5_EEESt10_Select1stISB_ESt4lessIS5_ESaISB_EE8_M_eraseEPSt13_Rb_tree_nodeISB_E
_ZNSt8_Rb_treeINSt7__cxx1112basic_stringIcSt11char_traitsIcESaIcEEESt4pairIKS5_PFvP4NodeRS5_EESt10_Select1stISD_ESt4lessIS5_ESaISD_EE16_M_insert_uniqueERKSD_
_ZNSt7__cxx1112basic_stringIcSt11char_traitsIcESaIcEE12_M_constructIPKcEEvT_S8_St20forward_iterator_tag
_Z18GetEndNodeDataTypeB5cxx1110datatype_e
_Z20GetStartNodeDataTypeB5cxx1110datatype_e
_ZN18ConfigurationAgent17GetElementRequestEP4NodeNSt7__cxx1112basic_stringIcSt11char_traitsIcESaIcEEERS7_
_Z23GetGPIOSettingsResponseP4NodeRNSt7__cxx1112basic_stringIcSt11char_traitsIcESaIcEEE
_ZN18ConfigurationAgent19GetChildrenTemplateB5cxx11ESt6vectorIP4NodeSaIS2_EE
_ZN4Node12GetAttributeB5cxx11EPS_
_ZN18ConfigurationAgent18GetElementResponseB5cxx11EP4Node
_Z19convertBoolToStringB5cxx11i
_ZN18ConfigurationAgent28GetDeviceInfoCheckinResponseERNSt7__cxx1112basic_stringIcSt11char_traitsIcESaIcEEE
sys_getProductVariantSKU
sys_getSystemVersion
sys_getDeviceModelName
insg_mqtt_get_demo_enabled
sys_getUSBTetheringCarrierEnabled
sys_getGPSCarrierEnabled
sys_getPowerSaveCarrierEnabled
sys_getIPv6CarrierEnabled
sys_getMTSMSCarrierEnabled
sys_getMOSMSCarrierEnabled
sys_getParentalControlsCarrierEnabled
sys_getEthernetCarrierEnabled
sys_getAccelerometerCarrierEnabled
sys_getUniversalChargingCarrierEnabled
sys_getUSBSerialCarrierEnabled
sys_getIPPassthroughCarrierEnabled
sys_getWebUICarrierEnabled
sys_getDeviceUICarrierEnabled
sys_getVPNCarrierEnabled
sys_getDNSCarrierEnabled
sys_getNUACarrierEnabled
sys_getANSCarrierEnabled
sys_getSambaCarrierEnabled
sys_getDataUsageCarrierEnabled
sys_getLEDCarrierEnabled
sys_getBluetoothCarrierEnabled
sys_getLocationSurveyCarrierEnabled
sys_getCarrierSimMgrFeatureEnabled
sys_getDeviceAgentCarrierEnabled
_Z28GetBluetoothSettingsResponseP4NodeRNSt7__cxx1112basic_stringIcSt11char_traitsIcESaIcEEE
_Z22GetWanSettingsResponseP4NodeRNSt7__cxx1112basic_stringIcSt11char_traitsIcESaIcEEE
_Z32GetAdminPasswordSettingsResponseP4NodeRNSt7__cxx1112basic_stringIcSt11char_traitsIcESaIcEEE
_Z22GetLANSettingsResponseP4NodeRNSt7__cxx1112basic_stringIcSt11char_traitsIcESaIcEEE
_Z25convertSubnetToCIDRPrefixPcPi
_Z31GetWiFiAdvancedSettingsResponseP4NodeRNSt7__cxx1112basic_stringIcSt11char_traitsIcESaIcEEE
_Z30GetWiFiNetworkSettingsResponseP4NodeRNSt7__cxx1112basic_stringIcSt11char_traitsIcESaIcEEE
_Z35GetWiFiGuestNetworkSettingsResponseP4NodeRNSt7__cxx1112basic_stringIcSt11char_traitsIcESaIcEEE
_Z32GetPortFilteringSettingsResponseP4NodeRNSt7__cxx1112basic_stringIcSt11char_traitsIcESaIcEEE
sys_getPortFilteringApplicationList
_Z28GetManualDnsSettingsResponseP4NodeRNSt7__cxx1112basic_stringIcSt11char_traitsIcESaIcEEE
_Z27GetFirewallSettingsResponseP4NodeRNSt7__cxx1112basic_stringIcSt11char_traitsIcESaIcEEE
_Z22GetGPSSettingsResponseP4NodeRNSt7__cxx1112basic_stringIcSt11char_traitsIcESaIcEEE
_Z28GetGPSRemoteSettingsResponseP4NodeRNSt7__cxx1112basic_stringIcSt11char_traitsIcESaIcEEE
sys_getGPSRemoteEnabled
sys_getGPSDeviceId
_Z28GetSimConfigurationsResponseP4NodeRNSt7__cxx1112basic_stringIcSt11char_traitsIcESaIcEEE
_Z24GetSimManagementSettingsP4NodeRNSt7__cxx1112basic_stringIcSt11char_traitsIcESaIcEEE
_Z26GetCarrierSettingsResponseP4NodeRNSt7__cxx1112basic_stringIcSt11char_traitsIcESaIcEEE
_Z23GetIPPTSettingsResponseP4NodeRNSt7__cxx1112basic_stringIcSt11char_traitsIcESaIcEEE
_Z22GetVpnSettingsResponseP4NodeRNSt7__cxx1112basic_stringIcSt11char_traitsIcESaIcEEE
_Z23GetLogsSettingsResponseP4NodeRNSt7__cxx1112basic_stringIcSt11char_traitsIcESaIcEEE
_Z32GetAccelerometerSettingsResponseP4NodeRNSt7__cxx1112basic_stringIcSt11char_traitsIcESaIcEEE
sys_getDriverBehaviorSettings
_Z27GetLocalGPSSettingsResponseP4NodeRNSt7__cxx1112basic_stringIcSt11char_traitsIcESaIcEEE
_Z30GetDeviceAgentSettingsResponseP4NodeRNSt7__cxx1112basic_stringIcSt11char_traitsIcESaIcEEE
insg_mqtt_get_heartbeat_timer_enabled
_Z29GetPreferenceSettingsResponseP4NodeRNSt7__cxx1112basic_stringIcSt11char_traitsIcESaIcEEE
_ZN29ConfigurationAgentPreferencesC1Ev
_ZN29ConfigurationAgentPreferences29GetPreferenceSettingsResponseEP4NodeRNSt7__cxx1112basic_stringIcSt11char_traitsIcESaIcEEE
_ZN29ConfigurationAgentPreferencesD1Ev
_ZN18ConfigurationAgent18CheckForSameSubnetE13ip4_address_t
_ZN18ConfigurationAgent29ValidatePortFilterSettingsObjEv
_Z25GetBlockedDevicesResponseP4NodeRNSt7__cxx1112basic_stringIcSt11char_traitsIcESaIcEEE
sys_getMacFilterList
_Z29GetWhiteListedDevicesResponseP4NodeRNSt7__cxx1112basic_stringIcSt11char_traitsIcESaIcEEE
_ZN18ConfigurationAgent28ValidateGPSRemoteSettingsObjEv
_Z10isAlphaNumRKNSt7__cxx1112basic_stringIcSt11char_traitsIcESaIcEEE
_Z21getDatausageStartDateP26configuration_data_usage_ti
_ZNKSt7__cxx1112basic_stringIcSt11char_traitsIcESaIcEE12find_last_ofEPKcjj
_ZNKSt7__cxx1112basic_stringIcSt11char_traitsIcESaIcEE4copyEPcjj
dua_get_data_usage_settings_info
sys_getSimSlotInfo
sys_getDataUsageStatistics
_ZN18ConfigurationAgent29GetDeviceStatsCheckinResponseERNSt7__cxx1112basic_stringIcSt11char_traitsIcESaIcEEE
_ZNSt7__cxx1112basic_stringIcSt11char_traitsIcESaIcEE6appendEPKc
_ZN18ConfigurationAgent19SendResponseToAgentEv
_ZNKSt12__basic_fileIcE7is_openEv
_ZSt7getlineIcSt11char_traitsIcESaIcEERSt13basic_istreamIT_T0_ES7_RNSt7__cxx1112basic_stringIS4_S5_T1_EES4_
_ZNKSt5ctypeIcE13_M_widen_initEv
GLIBCXX_3.4.11
_ZSt16__throw_bad_castv
_ZNSt14basic_ifstreamIcSt11char_traitsIcEED1Ev
_Z22ConvertConnectionStateB5cxx1126sys_vpn_connection_state_e34sys_vpn_connection_failed_reason_e
_Z20GetVpnStatusResponseP4NodeRNSt7__cxx1112basic_stringIcSt11char_traitsIcESaIcEEE
sys_getVpnConnectionStats
_ZN18ConfigurationAgent20InitializeGetApisMapEv
_Z33GetPortForwardingSettingsResponseP4NodeRNSt7__cxx1112basic_stringIcSt11char_traitsIcESaIcEEE
_Z28GetMACFilterSettingsResponseP4NodeRNSt7__cxx1112basic_stringIcSt11char_traitsIcESaIcEEE
_Z24GetBasicSettingsResponseP4NodeRNSt7__cxx1112basic_stringIcSt11char_traitsIcESaIcEEE
_ZN18ConfigurationAgent30ValidatePortForwardSettingsObjEv
_ZNKSt7__cxx1112basic_stringIcSt11char_traitsIcESaIcEE17find_first_not_ofEPKcjj
_ZNSt7__cxx1112basic_stringIcSt11char_traitsIcESaIcEE8_M_eraseEjj
_ZNKSt7__cxx1112basic_stringIcSt11char_traitsIcESaIcEE16find_last_not_ofEPKcjj
_ZSt24__throw_out_of_range_fmtPKcz
GLIBCXX_3.4.20
_ZN18ConfigurationAgent24ValidateObjectParametersEv
_ZN29ConfigurationAgentPreferences34ValidateDevicePrefencesSettingsObjERNSt7__cxx1112basic_stringIcSt11char_traitsIcESaIcEEE
_ZN18ConfigurationAgent27ValidateIPSecVPNSettingsObjEv
_ZN18ConfigurationAgent32ValidateDataUsageSettingsInfoObjEv
webui_get_supported_languages
sys_getRemoteOOBCarrierEnabled
sys_getCurrentEthernetMACAddress
_ZN15LanguageSupport23SetTextDomainPropertiesERKNSt7__cxx1112basic_stringIcSt11char_traitsIcESaIcEEES7_S7_
_ZNSt8_Rb_treeINSt7__cxx1112basic_stringIcSt11char_traitsIcESaIcEEESt4pairIKS5_P4NodeESt10_Select1stISA_ESt4lessIS5_ESaISA_EE7_M_copyINSG_20_Reuse_or_alloc_nodeEEEPSt13_Rb_tree_nodeISA_EPKSK_PSt18_Rb_tree_node_baseRT_
_ZNSt8_Rb_treeINSt7__cxx1112basic_stringIcSt11char_traitsIcESaIcEEESt4pairIKS5_P4NodeESt10_Select1stISA_ESt4lessIS5_ESaISA_EEaSERKSG_
_ZN18ConfigurationAgent10ConfigInitEv
_ZN4Node14GetXmlElementsB5cxx11EPc
_ZN18ConfigurationAgentC2Ev
_ZTV18ConfigurationAgent
_ZN18ConfigurationAgentC1Ev
_ZNSt8_Rb_treeINSt7__cxx1112basic_stringIcSt11char_traitsIcESaIcEEESt4pairIKS5_PFviS5_EESt10_Select1stISA_ESt4lessIS5_ESaISA_EE7_M_copyINSG_20_Reuse_or_alloc_nodeEEEPSt13_Rb_tree_nodeISA_EPKSK_PSt18_Rb_tree_node_baseRT_
_ZNSt8_Rb_treeINSt7__cxx1112basic_stringIcSt11char_traitsIcESaIcEEESt4pairIKS5_PFviS5_EESt10_Select1stISA_ESt4lessIS5_ESaISA_EEaSERKSG_
_ZN18ConfigurationAgent22SetDeviceAgentCallbackESt3mapINSt7__cxx1112basic_stringIcSt11char_traitsIcESaIcEEEPFviS6_ESt4lessIS6_ESaISt4pairIKS6_S8_EEE
_ZNSt8_Rb_treeINSt7__cxx1112basic_stringIcSt11char_traitsIcESaIcEEESt4pairIKS5_St6vectorIS5_SaIS5_EEESt10_Select1stISB_ESt4lessIS5_ESaISB_EE7_M_copyINSH_20_Reuse_or_alloc_nodeEEEPSt13_Rb_tree_nodeISB_EPKSL_PSt18_Rb_tree_node_baseRT_
_ZNSt8_Rb_treeINSt7__cxx1112basic_stringIcSt11char_traitsIcESaIcEEESt4pairIKS5_P4NodeESt10_Select1stISA_ESt4lessIS5_ESaISA_EE7_M_copyINSG_11_Alloc_nodeEEEPSt13_Rb_tree_nodeISA_EPKSK_PSt18_Rb_tree_node_baseRT_
_ZN18ConfigurationAgentD2Ev
_ZN4Node9clear_mapESt3mapINSt7__cxx1112basic_stringIcSt11char_traitsIcESaIcEEEPS_St4lessIS6_ESaISt4pairIKS6_S7_EEE
_ZN18ConfigurationAgentD1Ev
_ZN18ConfigurationAgentD0Ev
_ZN18ConfigurationAgent18GetCheckInResponseERSt6vectorINSt7__cxx1112basic_stringIcSt11char_traitsIcESaIcEEESaIS6_EERS6_
_ZN18ConfigurationAgent18GetRequestedEventsERSt6vectorINSt7__cxx1112basic_stringIcSt11char_traitsIcESaIcEEESaIS6_EERS6_
_ZNSt8_Rb_treeINSt7__cxx1112basic_stringIcSt11char_traitsIcESaIcEEESt4pairIKS5_St6vectorIS5_SaIS5_EEESt10_Select1stISB_ESt4lessIS5_ESaISB_EE7_M_copyINSH_11_Alloc_nodeEEEPSt13_Rb_tree_nodeISB_EPKSL_PSt18_Rb_tree_node_baseRT_
_ZNSt8_Rb_treeINSt7__cxx1112basic_stringIcSt11char_traitsIcESaIcEEESt4pairIKS5_10datatype_eESt10_Select1stIS9_ESt4lessIS5_ESaIS9_EE24_M_get_insert_unique_posERS7_
sys_getPortForwardingApplicationList
_ZNSt8_Rb_treeINSt7__cxx1112basic_stringIcSt11char_traitsIcESaIcEEESt4pairIKS5_St6vectorIS5_SaIS5_EEESt10_Select1stISB_ESt4lessIS5_ESaISB_EE24_M_get_insert_unique_posERS7_
_ZNSt8_Rb_treeINSt7__cxx1112basic_stringIcSt11char_traitsIcESaIcEEESt4pairIKS5_St6vectorIS5_SaIS5_EEESt10_Select1stISB_ESt4lessIS5_ESaISB_EE17_M_insert_unique_INSH_11_Alloc_nodeEEESt17_Rb_tree_iteratorISB_ESt23_Rb_tree_const_iteratorISB_ERKSB_RT_
_Z22GetTokenizedRequestMapSt6vectorINSt7__cxx1112basic_stringIcSt11char_traitsIcESaIcEEESaIS5_EE
_ZNKSt7__cxx1112basic_stringIcSt11char_traitsIcESaIcEE4findEcj
_ZN18ConfigurationAgent20GetTokenizedResponseESt3mapINSt7__cxx1112basic_stringIcSt11char_traitsIcESaIcEEESt6vectorIS6_SaIS6_EESt4lessIS6_ESaISt4pairIKS6_S9_EEES0_IS6_P4NodeSB_SaISC_ISD_SI_EEEb
_ZN18ConfigurationAgent20GetRequestedTemplateESt3mapINSt7__cxx1112basic_stringIcSt11char_traitsIcESaIcEEEP4NodeSt4lessIS6_ESaISt4pairIKS6_S8_EEERS6_b
_ZN18ConfigurationAgent20GetRequestedResponseE14specTemplate_eRNSt7__cxx1112basic_stringIcSt11char_traitsIcESaIcEEE
_ZN18ConfigurationAgent11GetTemplateE14specTemplate_eRNSt7__cxx1112basic_stringIcSt11char_traitsIcESaIcEEE
_ZN18ConfigurationAgent10GetrequestERSt6vectorINSt7__cxx1112basic_stringIcSt11char_traitsIcESaIcEEESaIS6_EERS6_
_ZNSt8ios_base4InitC1Ev
__aeabi_atexit
CXXABI_ARM_1.3.3
_ZNSt8ios_base4InitD1Ev
_ZNSt7__cxx1112basic_stringIcSt11char_traitsIcESaIcEED1Ev
_ZN18ConfigurationAgent14ProcessRequestERKNSt7__cxx1112basic_stringIcSt11char_traitsIcESaIcEEERS5_
_ZN23ConfigurationJSONParserC1EP18ConfigurationAgent
_ZN23ConfigurationJSONParser15ProcessJSONDataERKNSt7__cxx1112basic_stringIcSt11char_traitsIcESaIcEEE
_ZN23ConfigurationJSONParserD1Ev
sys_setCustomApnToDatabaseUsingIMSI
sys_setIgnitionShutdown
sys_setIgnitionVoltageShutdown
sys_setIgnitionBatteryTimeShutdown
_ZN18ConfigurationAgent22SeIPSECVPNSettingsInfoEv
_ZN29ConfigurationAgentPreferences21SetPreferenceSettingsEv
sys_setSIMAutoAlgoConfigs
sys_setSIMPriorityConfigs
sys_clearReservedIPList
sys_setLANSettings
sys_setIPv6Enabled
sys_setSIMSigQltyConfigs
sys_setAutoConnectVpnEnabled
webui_set_advanced_settings
deviceui_set_admin_password_enabled
sys_setNMEAOverWiFiEnabled
sys_setGPSStartupState
sys_setNMEAOverWiFiSettings
sys_setGPSEnabled
sys_cellularDataDisconnect
sys_setModemProfile
sys_cellularDataConnect
sys_setActiveSim
sys_setGPSLocalNMEA
sys_setGPSRemoteNMEA
sys_setIPPassthroughSettings
sys_setGPSDeviceId
sys_setGPSRemoteEnabled
sys_setIPPassthroughEnabled
sys_setIPv6TransparentModeEnabled
sys_setWanFailbackSettings
sys_setWanAutoSwitch
sys_setDMZSettings
sys_setVPNPassthroughEnabled
sys_setWanMonitorSettings
sys_setNR5GDisableMode
sys_setEnabledRadioTechnologies
sys_setDriverBehaviorSettings
_ZN18ConfigurationAgent24SetDataUsageSettingsInfoEv
webui_set_login_settings
sys_setMacFilterList
webui_set_log_settings
sys_setDMZEnabled
sys_setICMPResponseEnabledStatus
sys_setMacFilterWhiteListEnabled
sys_setManualDNSEnabled
sys_setIgnitionEnabled
sys_setGpioPin1Enable
sys_setIgnitionBatteryTimeout
insg_mqtt_set_ping_interval
insg_mqtt_set_checkin_interval
sys_setRoamingEnabled
sys_setInternationalRoamingEnabled
webui_set_automatic_network_selection
sys_setCellularDataEnabled
sys_setPortForwardingApplicationList
sys_setPortForwardingEnabled
sys_setPortFilteringApplicationList
sys_setPortFilteringEnabled
webui_set_software_update_settings
sys_setGPIOValue
sys_setGpioPin2CustomSettings
sys_setGPIODirection
sys_setUSBSerialThresholdSettings
sys_setDHCPReservedAddrList
insg_mqtt_set_deviceagent_enabled
sys_setBluetoothEnabled
sys_setUSBSerialEnabled
sys_setUSBSerialSettings
sys_simSetSwitchMode
sys_setGpioPin1CustomSettings
sys_setIgnitionVoltage
sys_setGpioPin2Enable
sys_setAccelerometerEnabled
sys_setAccelerometerSettings
sys_setMotionDetectionSettings
sys_setManualDNSSettings
_ZN18ConfigurationAgent14IsACLAvailableERKNSt7__cxx1112basic_stringIcSt11char_traitsIcESaIcEEE
_ZN23ConfigurationJSONParser11IsACLExistsERKNSt7__cxx1112basic_stringIcSt11char_traitsIcESaIcEEE
_ZN18ConfigurationAgent13SetACLObjectsERKNSt7__cxx1112basic_stringIcSt11char_traitsIcESaIcEEE
_ZN23ConfigurationJSONParser14SetACLSettingsERKNSt7__cxx1112basic_stringIcSt11char_traitsIcESaIcEEE
_ZN18ConfigurationAgent14ProcessCommandENSt7__cxx1112basic_stringIcSt11char_traitsIcESaIcEEE
_ZN23ConfigurationJSONParser17ProcessActionDataERNSt7__cxx1112basic_stringIcSt11char_traitsIcESaIcEEE
sys_rebootSystem
_ZSt16__ostream_insertIcSt11char_traitsIcEERSt13basic_ostreamIT_T0_ES6_PKS3_i
_ZNSo3putEc
_ZNSo5flushEv
sys_restoreFactoryDefaults
_ZNSt14basic_ofstreamIcSt11char_traitsIcEED1Ev
webui_su_check_for_update
_ZTTSt14basic_ofstreamIcSt11char_traitsIcEE
_ZTVSt14basic_ofstreamIcSt11char_traitsIcEE
sys_getNetworkTime
webui_get_software_installation_duration
sys_deleteDataUsageInfo
webui_get_last_software_update_status
_ZNKSt7__cxx1112basic_stringIcSt11char_traitsIcESaIcEE6substrEjj
_ZNSt7__cxx1112basic_stringIcSt11char_traitsIcESaIcEEC1ERKS4_jj
sys_deleteSimDataUsageInfo
sys_startGuestWiFiWpsSession
sys_getSerialPortConnectedStatus
sys_getIPSECVPNSettings
sys_startPrimaryWiFiWpsSession
sys_simRemoveNetworkLock
_ZNSt14basic_ofstreamIcSt11char_traitsIcEEC1Ev
_ZNSt14basic_ofstreamIcSt11char_traitsIcEE4openEPKcSt13_Ios_Openmode
_ZSt4endlIcSt11char_traitsIcEERSt13basic_ostreamIT_T0_ES6_
_ZNSt14basic_ofstreamIcSt11char_traitsIcEE5closeEv
webui_su_start_install
sys_disconnectVPN
sys_connectVPN
_ZTS18ConfigurationAgent
_ZTI18ConfigurationAgent
_ZTVN10__cxxabiv117__class_type_infoE
_ZN23ConfigurationJSONParserD2Ev
_ZN23ConfigurationJSONParserD0Ev
_ZN23ConfigurationJSONParser27handleManualDNSSettingsInfoEP10yajl_val_sP9context_s
yajl_tree_get
_ZN23ConfigurationJSONParser26handleFirewallSettingsInfoEP10yajl_val_sP9context_s
checkDeviceMACinList
_ZN23ConfigurationJSONParser27handleMacfilterSettingsInfoEP10yajl_val_sP9context_s
_ZN23ConfigurationJSONParser21handleLANSettingsInfoEP10yajl_val_sP9context_s
_ZN23ConfigurationJSONParser21handleGPSSettingsInfoEP10yajl_val_sP9context_s
_ZN23ConfigurationJSONParser31handleGPSRemoteReportingOptionsEP10yajl_val_sP9context_sP28sys_gps_remote_nmea_config_t
_ZN23ConfigurationJSONParser22handleGPSRemoteServersEP10yajl_val_sP9context_s
_ZN23ConfigurationJSONParser27handleGPSRemoteSettingsInfoEP10yajl_val_sP9context_s
_ZN23ConfigurationJSONParser14handleLogsInfoEP10yajl_val_sP9context_s
_ZN23ConfigurationJSONParser24handleBlockedDevicesInfoEP10yajl_val_sP9context_s
_ZN23ConfigurationJSONParser28handleWhiteListedDevicesInfoEP10yajl_val_sP9context_s
_ZN23ConfigurationJSONParser29handleWiFiNetworkSettingsInfoEP10yajl_val_sP9context_s
_ZN23ConfigurationJSONParser34handleWiFiGuestNetworkSettingsInfoEP10yajl_val_sP9context_s
_ZN23ConfigurationJSONParser30handleWiFiAdvancedSettingsInfoEP10yajl_val_sP9context_s
_ZN23ConfigurationJSONParser31handleAdminPasswordSettingsInfoEP10yajl_val_sP9context_s
_ZN23ConfigurationJSONParser26handlePortFilterCustomAppsEP10yajl_val_sP9context_s
_ZN23ConfigurationJSONParser27handlePortForwardCustomAppsEP10yajl_val_sP9context_s
_ZN23ConfigurationJSONParser31handleMobileNetworkSettingsInfoEP10yajl_val_sP9context_s
_ZN23ConfigurationJSONParser31handlePortFilteringSettingsInfoEP10yajl_val_sP9context_s
_ZN23ConfigurationJSONParser32handlePortForwardingSettingsInfoEP10yajl_val_sP9context_s
_ZN23ConfigurationJSONParser20handleReservedIPListEP10yajl_val_sP9context_s
_ZN23ConfigurationJSONParser27handleReservedIPAddressInfoEP10yajl_val_sP9context_s
_ZN23ConfigurationJSONParser31handleMiFiSharingTopLevelFolderEP10yajl_val_sP9context_s
_ZN23ConfigurationJSONParser29handleMiFiSharingSettingsInfoEP10yajl_val_sP9context_s
_ZN23ConfigurationJSONParser22handleIpptSettingsInfoEP10yajl_val_sP9context_s
_ZN23ConfigurationJSONParser30handleGPSLocalReportingOptionsEP10yajl_val_sP9context_sP27sys_gps_local_nmea_config_t
_ZN23ConfigurationJSONParser22handleLocalGpsSettingsEP10yajl_val_sP9context_s
_ZN23ConfigurationJSONParser25handleMotionDetectionInfoEP10yajl_val_sP9context_s
_ZN23ConfigurationJSONParser31handleBrakingDriverBehaviorListEP10yajl_val_sP9context_s
_ZN23ConfigurationJSONParser36handleAccelerationDriverBehaviorListEP10yajl_val_sP9context_s
_ZN23ConfigurationJSONParser33handleRightTurnDriverBehaviorListEP10yajl_val_sP9context_s
_ZN23ConfigurationJSONParser32handleLeftTurnDriverBehaviorListEP10yajl_val_sP9context_s
_ZN23ConfigurationJSONParser32handleVerticalDriverBehaviorListEP10yajl_val_sP9context_s
_ZN23ConfigurationJSONParser33handleMagnitudeDriverBehaviorListEP10yajl_val_sP9context_s
_ZN23ConfigurationJSONParser20handleDriverBehaviorEP10yajl_val_sP9context_s
_ZN23ConfigurationJSONParser31handleAccelerometerSettingsInfoEP10yajl_val_sP9context_s
_ZN23ConfigurationJSONParser27handleUSBSerialSettingsInfoEP10yajl_val_sP9context_s
_ZN23ConfigurationJSONParser26handleSoftwareSettingsInfoEP10yajl_val_sP9context_s
_ZN23ConfigurationJSONParser31handleSimManagementSettingsInfoEP10yajl_val_sP9context_s
_ZN23ConfigurationJSONParser35handleSimConfigurationsSettingsInfoEP10yajl_val_sP9context_s
_ZN23ConfigurationJSONParser21handleDeviceAgentInfoEP10yajl_val_sP9context_s
_ZN23ConfigurationJSONParser21handleWanSettingsInfoEP10yajl_val_sP9context_s
_ZN23ConfigurationJSONParser22handleGPIOSettingsInfoEP10yajl_val_sP9context_s
_ZN23ConfigurationJSONParserC2EP18ConfigurationAgent
_ZTV23ConfigurationJSONParser
_ZNSt7__cxx1112basic_stringIcSt11char_traitsIcESaIcEE12_M_constructIPcEEvT_S7_St20forward_iterator_tag
_ZN23ConfigurationJSONParser21handleVpnSettingsInfoEP10yajl_val_sP9context_s
_ZN23ConfigurationJSONParser22handleCompleteJSONDataEP10yajl_val_sP9context_s
_ZN29ConfigurationAgentPreferences27handleDevicePreferencesInfoEP10yajl_val_sP9context_s
_ZN23ConfigurationJSONParser27handleDataUsageSettingsInfoEP10yajl_val_sP9context_s
_ZN23ConfigurationJSONParser26handleIPSecVPNSettingsInfoEP10yajl_val_sP9context_s
yajl_alloc
yajl_parse
yajl_tree_free
yajl_free
_ZNSo9_M_insertIxEERSoT_
_ZTTNSt7__cxx1118basic_stringstreamIcSt11char_traitsIcESaIcEEE
_ZTVNSt7__cxx1118basic_stringstreamIcSt11char_traitsIcESaIcEEE
_ZNSt7__cxx1118basic_stringstreamIcSt11char_traitsIcESaIcEEC1ESt13_Ios_Openmode
_ZNKSt7__cxx1115basic_stringbufIcSt11char_traitsIcESaIcEE3strEv
_ZNSt7__cxx1118basic_stringstreamIcSt11char_traitsIcESaIcEED1Ev
_ZTS23ConfigurationJSONParser
_ZTI23ConfigurationJSONParser
handle_null
handle_boolean
handle_integer
handle_double
handle_string
handle_start_map
handle_end_map
handle_start_array
handle_end_array
_ZN23ConfigurationJSONParser28handleAccessControlEntryInfoEPKcP10yajl_val_sP9context_s
yajl_parse_integer
value_alloc
yajl_array_free
yajl_object_free
context_push
context_pop
object_add_keyval
array_add_value
context_add_value
_Z27ConvertDataTypeStringToEnumPKc
_Z10getNodeSetP7_xmlDocPh
xmlXPathNewContext
LIBXML2_2.4.30
libxml2.so.2
xmlXPathEvalExpression
xmlXPathFreeContext
xmlXPathFreeObject
_Z10isLeafNodeP8_xmlNode
_Z15isAttributeNodeP8_xmlNode
_ZN13AttributeNodeD2Ev
_ZN13AttributeNodeD1Ev
_ZNSt6vectorIiSaIiEEaSERKS1_
_Z25convertFloatValueToStringB5cxx11f
_Z23convertIntValueToStringB5cxx11i
_Z24convertLongValueToStringB5cxx11y
_ZNSt6vectorIP4NodeSaIS1_EE17_M_realloc_insertEN9__gnu_cxx17__normal_iteratorIPS1_S3_EERKS1_
_ZN4Node8addChildEPS_
_ZNSt6vectorINSt7__cxx1112basic_stringIcSt11char_traitsIcESaIcEEESaIS5_EE8_M_eraseEN9__gnu_cxx17__normal_iteratorIPS5_S7_EESB_
_ZN4Node10deleteNodeEPS_PKc
_ZNSt6vectorIiSaIiEE17_M_realloc_insertEN9__gnu_cxx17__normal_iteratorIPiS1_EERKi
_ZN4NodeC2ENSt7__cxx1112basic_stringIcSt11char_traitsIcESaIcEEE10datatype_eP13AttributeNode
_ZN4NodeC1ENSt7__cxx1112basic_stringIcSt11char_traitsIcESaIcEEE10datatype_eP13AttributeNode
_ZNSt8_Rb_treeINSt7__cxx1112basic_stringIcSt11char_traitsIcESaIcEEESt4pairIKS5_P4NodeESt10_Select1stISA_ESt4lessIS5_ESaISA_EE16_M_insert_uniqueERKSA_
_Z27ConvertDataTypeEnumToStringB5cxx1110datatype_e
_Z18AttributeParseNodeP8_xmlNodePKcP13AttributeNode
xmlNodeGetContent
_Z9parseNodeP8_xmlNodePKcP4Node
xmlParseFile
xmlFreeDoc
xmlCleanupParser
_ZN18ConfigurationAgent20ConvertFloatToStringB5cxx11Ef
_ZN18ConfigurationAgent18ConvertIntToStringB5cxx11Ei
_ZN18ConfigurationAgent19ConvertLongToStringB5cxx11Ey
sys_getGoldenRecordInfo
_ZN18ConfigurationAgent16GetActiveSimSlotEv
_ZN18ConfigurationAgent17GetAllSimSlotInfoEv
_ZN18ConfigurationAgent10GetSimIMSIEv
_ZN18ConfigurationAgent11GetSimICCIDEv
_ZN18ConfigurationAgent28GetCurrentEthernetMACAddressEv
_ZN18ConfigurationAgent24GetDataUsageSettingsInfoEv
sys_getEthernetEnabled
dua_set_data_usage_settings_info
_ZN18ConfigurationAgent26SetDataUsageLevelEventInfoEP22config_du_level_data_t
_ZN4Util6String8tokenizeERKNSt7__cxx1112basic_stringIcSt11char_traitsIcESaIcEEES8_
_ZNKSt7__cxx1112basic_stringIcSt11char_traitsIcESaIcEE13find_first_ofEPKcjj
_Z32handleInterfaceDataUsageSettingsP10yajl_val_sP19config_du_setting_tRi
_Z29GetDataUsageInterfaceResponseSt6vectorIP4NodeSaIS1_EEP16dua_iface_type_eP14dua_iface_id_tiRNSt7__cxx1112basic_stringIcSt11char_traitsIcESaIcEEE
_ZN29ConfigurationAgentPreferencesC2Ev
_ZN29ConfigurationAgentPreferences15ResetObjectDataEv
_ZN29ConfigurationAgentPreferencesD2Ev
_Z17GetDhcpEndAddressiPcS_j
_Z12ValidateTimePc8format_e
_Z18ValidateDeviceNameRKNSt7__cxx1112basic_stringIcSt11char_traitsIcESaIcEEE
sys_setDeepSleepEnabled
sys_getPowerSaveSettings
sys_setPowerSaveSettings
sys_setAutoShutdownEnabled
sys_setLEDEnabled
sys_setUIStealthModeEnabled
deviceui_set_notification_display_wakeup_setting_enabled
deviceui_set_display_setting_enabled
sys_setUniversalChargingSettings
sys_getUSBTetheringEnabled
sys_setUSBTetheringEnabled
sys_enableWifiWhileTethered
deviceui_set_usb_connection_prompt_enabled
sys_setUINotificationSettings
sys_setAudioAlertsEnabled
webui_set_i18n_settings
sys_setWebuiURL
sys_setEthernetEnabled
insg_mqtt_set_cpe_scheduler_data
deviceui_set_screen_timeout_settings
sys_setHWFactoryResetEnabled
_ZN29ConfigurationAgentPreferences28GetAllowPreferencesOnDisplayEv
deviceui_get_display_setting_enabled
_ZN29ConfigurationAgentPreferences17GetUCAutoOffLevelEv
sys_getUniversalChargingSettings
_ZN29ConfigurationAgentPreferences12GetSleepTimeEv
_ZN29ConfigurationAgentPreferences15GetShutDownTimeEv
_ZN29ConfigurationAgentPreferences13GetLEDEnabledEv
sys_getLEDEnabled
_ZN29ConfigurationAgentPreferences21GetStealthModeEnabledEv
sys_getUIStealthModeEnabled
_ZN29ConfigurationAgentPreferences37GetWakeupDisplayOnNotificationEnabledEv
deviceui_get_notification_display_wakeup_setting_enabled
_ZN29ConfigurationAgentPreferences24GetPreferenceLanSettingsEv
_ZN29ConfigurationAgentPreferences10GetUSBModeEv
_ZN29ConfigurationAgentPreferences14GetUSBwifiModeEv
_ZN29ConfigurationAgentPreferences16GetUSBModePromptEv
deviceui_get_usb_connection_prompt_enabled
_ZN29ConfigurationAgentPreferences28handleUSBModePreferencesInfoEP10yajl_val_sP9context_s
_ZN29ConfigurationAgentPreferences21GetAudioAlertSettingsEv
sys_getUINotificationSettings
_ZN29ConfigurationAgentPreferences26GetAudioAlertSettingsCountEv
_ZN29ConfigurationAgentPreferences15GetAudioEnabledEv
sys_getAudioAlertsEnabled
_ZN29ConfigurationAgentPreferences26handleAudioPreferencesInfoEP10yajl_val_sP9context_s
_ZN29ConfigurationAgentPreferences15GetAllowHWResetEv
sys_getHWFactoryResetEnabled
_ZN29ConfigurationAgentPreferences17GetDisplayTimeoutEv
deviceui_get_screen_timeout_settings
_ZN29ConfigurationAgentPreferences18GetDisplaySettingsEv
webui_get_i18n_settings
_ZN29ConfigurationAgentPreferences24handleDisplaySettingInfoEP10yajl_val_sP9context_s
_ZN29ConfigurationAgentPreferences36GetPreferenceRebootSchedulerSettingsEv
insg_mqtt_get_cpe_scheduler_data
_ZN29ConfigurationAgentPreferences23GetPreferenceDeviceNameEv
sys_getWebuiURL
_ZN29ConfigurationAgentPreferences17GetEnableEthernetEv
sys_getEnableWifiWhileTethered
sys_getUniversalChargingStatus
_Z20get_ipsec_algorithmsPcP25config_ipsec_algorithms_t
_ZN18ConfigurationAgent19GetIPSecVPNSettingsEv
_ZN18ConfigurationAgent15GetIPSecVPNListEv
_ZN18ConfigurationAgent18GetIPSecVPNEnabledEv
_ZN18ConfigurationAgent20GetIPSecVPNListCountEv
sys_setIPSECVPNStatus
sys_setIPSECVPNSettings
sys_clearIpsecVPNConfigSettings
_ZN18ConfigurationAgent17SetIPSecEventInfoEP28config_ipsecvpn_state_info_t
IPSecEvent
_Z20set_ipsec_algorithmsB5cxx11P25config_ipsec_algorithms_ti
_ZN23ConfigurationJSONParser18handleIPSecServersEP10yajl_val_sP9context_s
sys_getIPSECVPNStatus
__bss_start
libmificommon.so
libmifi_debug.so
libxmldata_api.so
libz.so.1
libmifimsgbus.so
libwatchdog_api.so
libmifi_config.so
libsettings_api.so
libdmdb_api.so
libqmi_client_qmux.so.1
libqmi.so.1
libqmiidl.so.1
libqmiservices.so.1
libdiag.so.1
libgthread-2.0.so.0
libglib-2.0.so.0
libqmi_cci.so.1
libqmi_csi.so.1
libqmi_sap.so.1
libqmi_common_so.so.1
libqmi_encdec.so.1
libnwqmi.so
libmal_qct.so
libdl.so.2
librt.so.1
libmifi_events.so
libdsm_api.so
libacm.so
libgpio.so
libpowersave_api.so
libmodem2_api.so
libgps_api.so
libfactory_reset_api.so
libsms_api.so
libwifi_api.so
libm.so.6
libccm2_api.so
librouter2_api.so
libfile_sharing_api.so
libfota_api.so
libled_api.so
libbuzzer_api.so
libans_api.so
libusb_api.so
libemd_api.so
libsensor_api.so
libvpn_api.so
libbluetooth_api.so
libsim_mgr_api.so
libwan_mgr_api.so
libcbsd_api.so
libsysintclient.so
libwebui_api.so
libdevui_api.so
libdua_api.so
libpcre.so.1
libpcrecpp.so.0
libyajl.so.1
libuisupport.so
libcgicc.so.3
libcurl.so.4
libcares.so.2
libcrypto.so.1.1
libssl.so.1.1
libiconv.so.2
libdeviceagent_api.so
H	KxD	J{D
void GetGoldenRecordWrappedResponse(Node*, std::__cxx11::string&)
void GetDataUsageSettingsWrappedResponse(Node*, std::__cxx11::string&)
void GetDataUsageEventsWrappedResponse(Node*, std::__cxx11::string&)
void GetIPSecWrappedResponse(Node*, std::__cxx11::string&)
void GetIPSecEventWrappedResponse(Node*, std::__cxx11::string&)
void GetIPSecVPNSettingsWrappedResponse(Node*, std::__cxx11::string&)
void GetImeiResponse(Node*, std::__cxx11::string&)
bool ConfigurationAgent::InitializeSysInterface()
bool ConfigurationAgent::UninitializeSysInterface()
int ConfigurationAgent::IsValidIP(char*)
int ConfigurationAgent::IsValidIPWithPrivateAddressRange(char*)
int ConfigurationAgent::IsvalidIpWithBroadcastRange(const char*)
uint32_t ConfigurationAgent::IPToInt32(char*)
int ConfigurationAgent::IsNetworkOrBroadcastIp(const char*)
int ConfigurationAgent::CheckSubnetMatch(const char*, const char*, const char*)
bool ConfigurationAgent::validateIpWithDhcpRange(const char*, const char*, const char*)
int ConfigurationAgent::IsValidIpWithDhcp(const char*, const char*)
int ConfigurationAgent::IsValidDhcpRange(const char*, int)
sys_gps_remote_nmea_config_t* ConfigurationAgent::GetParsedGPSRemoteSettings()
bool ConfigurationAgent::CheckPortRanges(int, int, int, int)
int ConfigurationAgent::ValidateCarrierConnectionsURL(const char*)
int ConfigurationAgent::CheckIsFullURL(std::__cxx11::string)
int ConfigurationAgent::CheckForValidSiteName(std::__cxx11::string)
bool ConfigurationAgent::isValidDateFormat(const char*)
void ConvertCarrierToString(char*, char*)
int getConnectionstatus(sys_sim_status_e, sys_wan_service_status_e, sys_wan_connection_status_e)
void convertRatToString(sys_wan_tech_e, char*)
void ConfigurationAgent::SetAclCallback(UpdateACLPairCb_t)
void ConfigurationAgent::SaveErrorMessage(const string&)
int ConfigurationAgent::CheckAppConflicts(int, sys_router_app_t*, int)
int ConfigurationAgent::CheckPortFilterAppConflicts(int, sys_router_app_t*, int)
int ConfigurationAgent::ValidateCarrierConnectionSettingsObj()
int ConfigurationAgent::ValidateWanSettingsObj()
int ConfigurationAgent::ValidateMobileNetworkSettingsObj()
int ConfigurationAgent::ValidateNetworkTechnology5GModeSettingsObj()
int ConfigurationAgent::ValidateVpnSettingsObj()
int ConfigurationAgent::SetVpnSettings()
int ConfigurationAgent::ValidateGPIOSettingsObj()
int ConfigurationAgent::ValidateManualDNSSettingsObj()
sys_mac_filter_device_t* ConfigurationAgent::GetAllMacAddrList()
int ConfigurationAgent::ValidateWhiteListAndBlockedDevicesObj()
int ConfigurationAgent::ValidateAdvancedWifiParametersObj()
int ConfigurationAgent::ValidateWiFiParametersObj()
int ConfigurationAgent::ValidateGuestWifiParametersObj()
int ConfigurationAgent::SetWiFiParameters()
Email (POP3, IMAP, SMTP)
Secure SMTP
Secure SMTP (SSMTP)
Secure IMAP (IMAP4-SSL)
IMAP4 over SSL (IMAPS)
Secure POP3 (SSL-POP)
int ConfigurationAgent::ValidateIPPTSettingsObj()
int ConfigurationAgent::ValidateFirewallSettingsObj()
int ConfigurationAgent::ValidateReservedIPAddressSettingsObj()
int ConfigurationAgent::ResetObjectData()
int ConfigurationAgent::ValidateAccelerometerSettingsObj()
sys_usb_serial_port_config_list_t* ConfigurationAgent::GetUSBSerialSettingsInfo()
sys_usb_serial_threshold_settings_t* ConfigurationAgent::GetUSBSerialThresholdSettingsInfo()
int ConfigurationAgent::ValidateMiFiSharingSettingsObj()
sys_sig_qlty_config_t* ConfigurationAgent::GetSignalQualityConfigurations()
sys_priority_sim_config_t* ConfigurationAgent::GetSIMPriorityConfigurations()
sys_sim_mgr_switching_rules_type_t* ConfigurationAgent::GetSIMSwitchRules()
int ConfigurationAgent::ValidateSimManagementSettingsObj()
int ConfigurationAgent::ValidateSimConfigurationSettingsObj()
config_sim_configurations_t* ConfigurationAgent::GetSIMConfigurations()
sys_gps_local_nmea_config_t* ConfigurationAgent::GetLocalGpsSettingsInfo()
int ConfigurationAgent::ValidateLocalGpsSettingsObj()
int ConfigurationAgent::ValidateDeviceAgentSettingsObj()
int ConfigurationAgent::ValidateAdminPasswordSettingsObj()
int ConfigurationAgent::ValidateLANSettingsObj()
int ConfigurationAgent::ValidateBluetoothSettingsObj()
std::__cxx11::string mapDeviceTypeToString(sys_device_type_e)
int ConfigurationAgent::GetDebugFilePath(std::__cxx11::string&)
int ConfigurationAgent::DeleteDebugLogFile()
bool ConfigurationAgent::GetPreCheckforUpdateState()
int ConfigurationAgent::SendCmdToSerialPort(char*, char*)
int ConfigurationAgent::SetUSBSerialEventInfo(config_serial_port_data_t*)
Node* GetNodeElement(std::__cxx11::string, std::map<std::__cxx11::basic_string<char>, Node*>)
void GetCarrierLockResponse(Node*, std::__cxx11::string&)
void ConfigurationAgent::GetGPIOInfoCheckinResponse(std::__cxx11::string&)
void ConfigurationAgent::GetECompassInfoCheckinResponse(std::__cxx11::string&)
void ConfigurationAgent::GetGpsInfoCheckinResponse(std::__cxx11::string&)
void GetTimestampResponse(Node*, std::__cxx11::string&)
void GetSoftwareUpdateSettingsResponse(Node*, std::__cxx11::string&)
void GetCarrierConnectionSettingsResponse(Node*, std::__cxx11::string&)
void GetClientResponse(Node*, std::__cxx11::string&)
void GetBatteryResponse(Node*, std::__cxx11::string&)
void GetGpsResponse(Node*, std::__cxx11::string&)
void GetWifiResponse(Node*, std::__cxx11::string&)
void GetGpioResponse(Node*, std::__cxx11::string&)
void ConfigurationAgent::GetUsbSerialConnectedDeviceListInfo(Node*, std::__cxx11::string&)
void GetUsbSerialConnectedDeviceList(Node*, std::__cxx11::string&)
void GetECompassResponse(Node*, std::__cxx11::string&)
void GetReservedIpSettingsResponse(Node*, std::__cxx11::string&)
void GetUSBSerialSettingsResponse(Node*, std::__cxx11::string&)
void GetWanResponse(Node*, std::__cxx11::string&)
void ConfigurationAgent::GetElementRequest(Node*, std::__cxx11::string, std::__cxx11::string&)
void GetGPIOSettingsResponse(Node*, std::__cxx11::string&)
std::__cxx11::string ConfigurationAgent::GetChildrenTemplate(std::vector<Node*>)
std::__cxx11::string ConfigurationAgent::GetElementResponse(Node*)
void ConfigurationAgent::GetDeviceInfoCheckinResponse(std::__cxx11::string&)
void GetBluetoothSettingsResponse(Node*, std::__cxx11::string&)
void GetWanSettingsResponse(Node*, std::__cxx11::string&)
void GetAdminPasswordSettingsResponse(Node*, std::__cxx11::string&)
void GetLANSettingsResponse(Node*, std::__cxx11::string&)
void GetWiFiAdvancedSettingsResponse(Node*, std::__cxx11::string&)
void GetWiFiNetworkSettingsResponse(Node*, std::__cxx11::string&)
void GetWiFiGuestNetworkSettingsResponse(Node*, std::__cxx11::string&)
void GetPortFilteringSettingsResponse(Node*, std::__cxx11::string&)
void GetManualDnsSettingsResponse(Node*, std::__cxx11::string&)
void GetFirewallSettingsResponse(Node*, std::__cxx11::string&)
void GetGPSSettingsResponse(Node*, std::__cxx11::string&)
void GetGPSRemoteSettingsResponse(Node*, std::__cxx11::string&)
void GetSimConfigurationsResponse(Node*, std::__cxx11::string&)
void GetSimManagementSettings(Node*, std::__cxx11::string&)
void GetCarrierSettingsResponse(Node*, std::__cxx11::string&)
void GetIPPTSettingsResponse(Node*, std::__cxx11::string&)
void GetVpnSettingsResponse(Node*, std::__cxx11::string&)
void GetLogsSettingsResponse(Node*, std::__cxx11::string&)
void GetAccelerometerSettingsResponse(Node*, std::__cxx11::string&)
void GetLocalGPSSettingsResponse(Node*, std::__cxx11::string&)
void GetDeviceAgentSettingsResponse(Node*, std::__cxx11::string&)
void GetPreferenceSettingsResponse(Node*, std::__cxx11::string&)
bool ConfigurationAgent::CheckForSameSubnet(ip4_address_t)
int ConfigurationAgent::ValidatePortFilterSettingsObj()
void GetBlockedDevicesResponse(Node*, std::__cxx11::string&)
void GetWhiteListedDevicesResponse(Node*, std::__cxx11::string&)
int ConfigurationAgent::ValidateGPSRemoteSettingsObj()
void getDatausageStartDate(configuration_data_usage_t*, int)
void ConfigurationAgent::GetDeviceStatsCheckinResponse(std::__cxx11::string&)
void ConfigurationAgent::SendResponseToAgent()
void GetVpnStatusResponse(Node*, std::__cxx11::string&)
int ConfigurationAgent::ValidatePortForwardSettingsObj()
int ConfigurationAgent::ValidateObjectParameters()
void GetMACFilterSettingsResponse(Node*, std::__cxx11::string&)
void GetBasicSettingsResponse(Node*, std::__cxx11::string&)
void ConfigurationAgent::ConfigInit()
ConfigurationAgent::ConfigurationAgent()
void ConfigurationAgent::SetDeviceAgentCallback(std::map<std::__cxx11::basic_string<char>, void (*)(int, std::__cxx11::basic_string<char>)>)
int ConfigurationAgent::GetCheckInResponse(std::vector<std::__cxx11::basic_string<char> >&, std::__cxx11::string&)
int ConfigurationAgent::GetRequestedEvents(std::vector<std::__cxx11::basic_string<char> >&, std::__cxx11::string&)
void GetPortForwardingSettingsResponse(Node*, std::__cxx11::string&)
std::map<std::__cxx11::basic_string<char>, std::vector<std::__cxx11::basic_string<char> > > GetTokenizedRequestMap(std::vector<std::__cxx11::basic_string<char> >)
std::__cxx11::string ConfigurationAgent::GetTokenizedResponse(std::map<std::__cxx11::basic_string<char>, std::vector<std::__cxx11::basic_string<char> > >, std::map<std::__cxx11::basic_string<char>, Node*>, bool)
void ConfigurationAgent::GetRequestedTemplate(std::map<std::__cxx11::basic_string<char>, Node*>, std::__cxx11::string&, bool)
int ConfigurationAgent::GetRequestedResponse(specTemplate_e, std::__cxx11::string&)
void ConfigurationAgent::GetTemplate(specTemplate_e, std::__cxx11::string&)
int ConfigurationAgent::Getrequest(std::vector<std::__cxx11::basic_string<char> >&, std::__cxx11::string&)
int ConfigurationAgent::ProcessRequest(const string&, std::__cxx11::string&)
bool ConfigurationAgent::IsACLAvailable(const string&)
int ConfigurationAgent::SetACLObjects(const string&)
int ConfigurationAgent::ProcessCommand(std::__cxx11::string)
18ConfigurationAgent
CONFIGURATION_MODULE
[%s]:[%s] - %s failed with code = %d
sys_setWiFiPrimaryProfileEnabled
sys_getWiFiPrimaryProfileEnabled
sys_getWiFiGuestProfileEnabled
[%s]:[%s] - sys_getWiFiGuestProfileEnabled returned : [%d]
[%s]:[%s] - sys_getWiFiPrimaryProfileEnabled returned : [%d]
[%s]:[%s] - %s - BEGIN 
[%s]:[%s] - %s - g_active_config_instance is NULL
[%s]:[%s] - %s - END Response [%s]
[%s]:[%s] - %s - END 
[%s]:[%s] - %s - BEGIN
[%s]:[%s] - %s - g_active_config_instace is NULL
[%s]:[%s] - %s - END
basic_string::_M_construct null not valid
[%s]:[%s] - %s - sys_getHardwareInfo failed returning %d, try sysintcli getHardwareInfo from command line
basic_string::append
[%s]:[%s] -  sdkInitialize returned %d
[%s]:[%s] - %s - END returning %d
[%s]:[%s] -  sdkShutdown returned %d
%d.%d.%d.%d
[%s]:[%s] - %s - END returning [%d]
10.0.0.0
192.168.0.0
172.16.0.0
[%s]:[%s] - IpAddress is not matched with subnet
[%s]:[%s] - DHCP start address does not contain a minimum number of clients address to serve.
[%s]:[%s] - %s - inet_pton is failed. DHCP start address is not a valid IP
[%s]:[%s] - Invalid arguments passed to MinIp().
[%s]:[%s] - Invalid Start IP in DHCP range.
[%s]:[%s] - Invalid End IP in DHCP range.
[%s]:[%s] - Both IPs are classA, but first 2 octets differ
[%s]:[%s] - Both IPs are classB, but first 4 octets differ
[%s]:[%s] - Both IPs are classC, but first 6 octets differ
sys_getGPSRemoteNMEA
[%s]:[%s] - %s - CheckPortRanges failed END returning false
[%s]:[%s] - %s - BEGIN - url is  : %s
[%s]:[%s] - %s - url is invalid as it starts with hyphen
^[A-Za-z0-9-]+(\.[A-Za-z0-9-]+)*(\.[A-Za-z]{2,})$
[%s]:[%s] - %s - %s : url is valid
[%s]:[%s] - %s - %s : url is invalid
[%s]:[%s] - %s - regexec() failed with error code : %d
[%s]:[%s] - %s - regcomp() failed with error code : %d
[%s]:[%s] - %s - END returning
[%s]:[%s] - %s - site name is: [%s].
Errors with blank items: END returning 1
[%s]:[%s] - %s - regexec(%s) returned %d
[%s]:[%s] - %s - regerror said: %s
[%s]:[%s] - %s - regerror failed
[%s]:[%s] - %s - Errors with blank items: END returning 1
[%s]:[%s] - %s - Errors domain name start with FTP: END returning 1
^(1[0-2]|0[1-9])[/-](3[01]|[12][0-9]|0[1-9])[/-][0-9]{4}$
[%s]:[%s] - %s - regcomp  returned %d
[%s]:[%s] - %s - regexec() results: SUCCESS 
sys_setSambaEnabled
sys_setSambaSettings
sys_setSambaHostname
sys_setSambaFolderSettings
sys_setSambaPrimaryNetworkEnabled
sys_setSambaGuestNetworkEnabled
[%s]:[%s] - Failed to set Filsharing on display enabled parameter.
[%s]:[%s] - %s - BEGIN carrier:%s
SOFTBANK
[%s]:[%s] - %s - BEGIN wanTech[%d]
[%s]:[%s] - %s - END tech[%s]
[%s]:[%s] - %s - BEGIN and err[%s]
[%s]:[%s] - %s - Validation Failure -> Duplicate name detected: END returning 1
Invalid Port Forwarding object. Custom application name %s is duplicated
[%s]:[%s] - %s - Validation Failure -> Port Conflict Detected: END returning 1
Invalid Port Forwarding object. Custom application index %d port conflict is detected
[%s]:[%s] - %s - END returning 0 - No Errors
Invalid Port Filtering object. Custom application name %s is duplicated
[%s]:[%s] - Invalid Ping Frequency:%d
Invalid Carrier Connection Settings object Ping Frequency: parameter value
[%s]:[%s] - Invalid NumberOfRetries:%d
Invalid Carrier Connection Settings object NumberOfRetries : parameter value
[%s]:[%s] - Invalid PingRetryTime:%d
Invalid Carrier Connection Settings object PingRetryTime : parameter value
[%s]:[%s] - Invalid Signal Strength:%d
Invalid Carrier Connection Settings object Signal Strength  : parameter value
[%s]:[%s] - Invalid Primary Address:%s
Invalid Carrier Connection Settings object Primary Address : parameter value
[%s]:[%s] - Invalid Secondary Address:%s
Invalid Carrier Connection Settings object Secondary Address : parameter value
[%s]:[%s] - routed retry count validation failed
Invalid retry count value.
[%s]:[%s] - online retry count validation failed
[%s]:[%s] - keepalive interval validation failed
Invalid keepalive interval value.
[%s]:[%s] - failover interval validation failed
Invalid failover interval value.
[%s]:[%s] - DNS URL1 validation failed
Invalid DNS URL1
[%s]:[%s] - DNS URL2 validation failed
Invalid DNS URL2
[%s]:[%s] - DNS URL3 validation failed
Invalid DNS URL3
[%s]:[%s] - Invalid failback interval validation failed
Invalid failback interval value.
[%s]:[%s] - %s - END rc %d
[%s]:[%s] - Invalid mobile networksettings apn
APN should not be empty or greater than[%d]
[%s]:[%s] - Invalid APN name for Carrier Settings
Invalid APN name for Carrier Settings
[%s]:[%s] - Invalid sim username
Invalid username for carrier settings.
[%s]:[%s] - Invalid username for carrier settings
Invalid username contains non ascii for carrier settings.
[%s]:[%s] - Invalid sim password
Invalid password for carrier settings.
[%s]:[%s] - Invalid password for carrier settings
Invalid password contains non ascii for carrier settings.
Invalid NetworkTechnology & 5G mode in settings.
sys_getEnabledRadioTechnologies
[%s]:[%s] - Valid NetworkTechnology & 5G Disable mode in settings
[%s]:[%s] - Invalid NetworkTechnology & 5G Disable mode in settings
sys_getNR5GDisableMode
getManualDNSSettings
[%s]:[%s] - getManualDNSSettings returned : [%d]
getIPPassthroughEnabled
[%s]:[%s] - getIPPassthroughEnabled returned : [%d]
getIPPassthroughSettings
[%s]:[%s] - getIPPassthroughSettings returned : [%d]
getAutoConnectVpnEnabled
[%s]:[%s] - getAutoConnectVpnEnabled returned : [%d]
getOpenVpnConfigFileSettings
[%s]:[%s] - getOpenVpnConfigFileSettings returned : [%d]
[%s]:[%s] - %s - BEGIN settings->config_files_path[%s], validate_settings.config_files_path[%s]
[%s]:[%s] - %s - sys_validateOpenvpnConfigFileSettings failed with error code: %d. Try sysintcli validateOpenvpnConfigFileSettings from command line
[%s]:[%s] - %s - Invalid certificate url parameter data type
Invalid vpn setting object Error in files provided
Invalid vpn setting object failed config directory
Invalid vpn setting object No config file
Invalid vpn setting object Invalid config file
[%s]:[%s] - %s - entered username is empty
Invalid vpn setting object username
[%s]:[%s] - %s - entered password is empty
Invalid vpn setting object password
[%s]:[%s] - %s - END ret %d
sys_setOpenVpnConfigFileSettings
sys_getVPNSettings
[%s]:[%s] - %s - sys_getVPNSettings failed with error code: %d. Try sysintcli getVPNSettings from command line
sys_setVPNSettings
[%s]:[%s] - %s - sys_setVPNSettings failed with error code: %d. Try sysintcli setVPNSettings from command line
getManualDNSEnabled
[%s]:[%s] - getManualDNSEnabled returned : [%d]
setGPSPrivacyAgreementAccepted
getGPSEnabled
[%s]:[%s] - getGPSEnabled returned : [%d]
getNMEAOverWiFiEnabled
[%s]:[%s] - getNMEAOverWiFiEnabled returned : [%d]
getGPSStartupState
[%s]:[%s] - getGPSStartupState returned : [%d]
getNMEAOverWiFiSettings
[%s]:[%s] - getNMEAOverWiFiSettings returned : [%d]
getGpioPin1Enable
[%s]:[%s] - getGpioPin1Enabled returned : [%d]
getIgnitionEnabled
[%s]:[%s] - getIgnitionEnabled returned : [%d]
getIgnitionShutdown
[%s]:[%s] - getIgnitionShutdown returned : [%d]
getIgnitionVoltageShutdown
[%s]:[%s] - getIgnitionVoltageShutdown returned : [%d]
getIgnitionBatteryTimeShutdown
[%s]:[%s] - getIgnitionBatteryTimeShutdown returned : [%d]
getIgnitionBatteryTimeout
[%s]:[%s] - getIgnitionBatteryTimeout returned : [%d]
getIgnitionVoltage
[%s]:[%s] - getIgnitionVoltage returned : [%d]
getGPIODirection
[%s]:[%s] - getGPIODirection returned : [%d]
getGpioPin1CustomSettings
[%s]:[%s] - getGpioPin1CustomSettings returned : [%d]
getGPIOValue
getGpioPin2Enable
[%s]:[%s] - getGpioPin2Enable returned : [%d]
getGpioPin2CustomSettings
[%s]:[%s] - getGpioPin2CustomSettings returned : [%d]
[%s]:[%s] - Invalid GPIO Pin1 IO Setting Name parameter is NonAlphaNumeric or length
Invalid GPIO Pin1 IO Setting Name parameter is NonAlphaNumeric or length
[%s]:[%s] - Invalid GPIO Pin1 Low State Name parameter is NonAlphaNumeric or length
Invalid GPIO Pin1 Low State Name parameter is NonAlphaNumeric or length
[%s]:[%s] - Invalid GPIO Pin1 High State Name parameter is NonAlphaNumeric or length
Invalid GPIO Pin1 High State Name parameter is NonAlphaNumeric or length
[%s]:[%s] - Invalid GPIO Pin1 Current State 
Invalid GPIO Pin1 Current State 
[%s]:[%s] - Pin 1 is disabled so no need to validate the inputs.
Pin 1 is disabled so no need to validate the inputs.
[%s]:[%s] - Invalid GPIO Pin2 IO Setting Name parameter is NonAlphaNumeric or length
Invalid GPIO Pin2 IO Setting Name parameter is NonAlphaNumeric or length
[%s]:[%s] - Invalid GPIO Pin2 Low State Name parameter is NonAlphaNumeric or length
Invalid GPIO Pin2 Low State Name parameter is NonAlphaNumeric or length
[%s]:[%s] - Invalid GPIO Pin2 High State Name parameter is NonAlphaNumeric or  length
Invalid GPIO Pin2 High State Name parameter is NonAlphaNumeric or length
[%s]:[%s] - Invalid GPIO Pin2 Current State 
Invalid GPIO Pin2 Current State 
[%s]:[%s] - Pin 2 is disabled so no need to validate the inputs.
Pin 2 is disabled so no need to validate the inputs.
[%s]:[%s] - getGPIOValue returned : [%d]
getIPv6TransparentModeEnabled
[%s]:[%s] - getIPv6TransparentModeEnabled returned : [%d]
getVPNPassthroughEnabled
[%s]:[%s] - getVPNPassthroughEnabled returned : [%d]
getDMZEnabled
[%s]:[%s] - getDMZEnabled returned : [%d]
getDMZSettings
[%s]:[%s] - getDMZSettings returned : [%d]
sys_getICMPResponseEnabledStatus
[%s]:[%s] - sys_getICMPResponseEnabledStatus returned : [%d]
getMacFilterWhiteListEnabled
[%s]:[%s] - getMacFilterWhiteListEnabled returned : [%d]
getIPv6Enabled
[%s]:[%s] - getIPv6Enabled returned : [%d]
getLANSettings
[%s]:[%s] - getLANSettings returned while get dhcp lease time [%d]
[%s]:[%s] - getLANSettings returned : [%d]
[%s]:[%s] -  Invalid Manual DNS1 IP address:(%s)
Invalid Manual DNS Settings object DNS1 IP address value
[%s]:[%s] -  Invalid Manual DNS2 IP address:(%s)
Invalid Manual DNS Settings object DNS2 IP address value
Invalid Manual DNS Settings object DNS2 IP address value is not either broadcast ip or should not be lanIp
[%s]:[%s] -  Primary and secondary manual DNS IP addresses are same:(%s)
Duplicate Manual DNS Settings object DNS2 IP address value
Manual DNS Disabled
webui_get_log_settings
[%s]:[%s] - webui_get_log returned : [%d]
[%s]:[%s] - %s - sys_getAllDevicesList has returned: %d while getting all device list
[%s]:[%s] -  MAC Filter cannot be turned on while no devices are allowed to connect.
Invalid White list devices object, mac adress list is empty.
[%s]:[%s] - %s:%d Invalid Blocked or WhiteListed Devices MAC address:(%s) 
Invalid Blocked or white list device mac address %s
[%s]:[%s] - (%s)Duplicate Blocked or White listed Devices MAC address are found
(%s)Duplicate Blocked or White listed Devices MAC address are found
[%s]:[%s] - %s - sys_getAllDevicesList has returned %d while getting all device list
[%s]:[%s] - %s - sys_deleteKnownDevice failed to delete device returning [%d],try sysintcli deleteKnownDevice on command line
clearing existing mac list database .... failed to delete mac entry : %s
[%s]:[%s] - %s - sys_getAllDevicesList failed while getting mac filter list returning [%d],try sysintcli getAllDevicesList on command line.
[%s]:[%s] - webui get login settings failed returned [%d]
[%s]:[%s] - webui get advanced settings failed returned [%d]
[%s]:[%s] - deviceui_get_admin_password_enabled returned : [%d]
getWiFiCarrierEnabled
[%s]:[%s] - getWiFiCarrierEnabled returned : [%d]
getGuestWiFiCarrierEnabled
[%s]:[%s] - getGuestWiFiCarrierEnabled returned : [%d]
getWiFiEnabled
[%s]:[%s] - getWiFiEnabled returned : [%d]
[%s]:[%s] - get WiFi 2.4GHz Profile Enabled returned [%d]
[%s]:[%s] - get WiFi 5GHz Profile Enabled returned [%d]
[%s]:[%s] -  get 5GHz 802.11 Mode or 2.4GHz Band enabled 0r 5 GHz band enabled wifi profile failed
[%s]:[%s] - Both 2.4GHz and 5GHz can not be turn off
Both 2.4GHz and 5GHz can not be turn off
[%s]:[%s] - Invalid WiFiMaxClients:%d
Invalid WiFi Advanced Settings object max Clients parameter value
getWiFiActiveProfileType
[%s]:[%s] - getWiFiActiveProfileType failed and returned [%d]
sys_getWiFiMaxClients
[%s]:[%s] - sys_getWiFiMaxClients returned : [%d]
getWiFiPrimaryProfile
[%s]:[%s] - getWiFiProfile Mode 5GHz failed and returned [%d]
[%s]:[%s] - getWiFiProfile Channel 5GHz failed and returned [%d]
[%s]:[%s] - getWiFiProfile bandwidth 5GHz failed and returned [%d]
[%s]:[%s] - getWiFiProfile failed and returned [%d]
[%s]:[%s] - getWiFiProfile 5GHz failed and returned [%d]
[%s]:[%s] - deviceui_get_primary_wifi_info_display_settings returned : [%d]
[%s]:[%s] - deviceui_get_wifi_setting_enabled returned : [%d]
getWiFiGuestProfile
[%s]:[%s] - getWiFiGuestProfile returned : [%d]
[%s]:[%s] - either get wifi carrier enabled or get wifi enabled or get wifi profile failed
[%s]:[%s] - either get wifi guest carrier enabled or get wifi guest profile failed
[%s]:[%s] - Invalid Wi-Fi Advanced Settings object Wi-Fi enabled parameter value. Wi-Fi and IPPT can not be enabled both at same time.
Invalid Wi-Fi Advanced Settings object Wi-Fi enabled parameter value. Wi-Fi and IPPT can not be enabled both at same time.
[%s]:[%s] - Invalid WiFiSSID:(%s)
Invalid WiFi Primary SSID. Contains non printable characters.
[%s]:[%s] - Invalid Wifi SSID(%s) and Guest SSID(%s) should not be same
WiFi Primary and Guest SSID's should not be same.
[%s]:[%s] - Invalid WiFiKey
Invalid WiFi Primary Key value. Either contains non printable characters or length is not matching.
[%s]:[%s] - Invalid Primary WiFi WPS enaled even though Broadcast SSID is disabled.
Invalid Primary WiFi WPS enabled. WPS can be enabled when broadcast is enabled.
[%s]:[%s] - Invalid configuration : WPS(primary) and mac filter enabled.
mac filter and WPS(primary) enabled, both cannot be used at the same time .
[%s]:[%s] - Invalid Guest WiFiSSID:(%s)
Invalid WiFi Guest SSID. Contains non printable characters.
[%s]:[%s] - Invalid WiFi Guest Key
Invalid WiFi Guest Key value. Either contains non printable characters or length is not matching.
[%s]:[%s] - Invalid Guest WiFi WPS enaled even though Broadcast SSID is disabled.
Invalid Guest WiFi WPS enabled. WPS can be enabled when broadcast is enabled.
setWiFiEnabled
[%s]:[%s] - set wifi allow changes on touch screen failed and returned:%d
[%s]:[%s] - get primary wifi profile or get wifi settings or get wifi enabled are failed
[%s]:[%s] -  set wifi profile for 2.4GHz failed and returned:%d
[%s]:[%s] -  set wifi profile for 5GHz failed and returned:%d
[%s]:[%s] -  set wifi guest profile for 2.4GHz failed and returned:%d
[%s]:[%s] -  set wifi guest profile for 5GHz failed and returned:%d
[%s]:[%s] -  wifi guest carrier disabled
[%s]:[%s] -  set wifi information on display failed and returned:%d
[%s]:[%s] -  set guest wifi information on display failed and returned:%d
[%s]:[%s] -  set wifi max clients failed and returned:%d
[%s]:[%s] - %s - Changes to wifi-primary profiles are applied successfully!
[%s]:[%s] - %s - sys_applyWiFiProfiles failed with error code %d. Try sysintcli applyWiFiProfiles from command line.
[%s]:[%s] -  wifi carrier is disabled, so unable to set it.
[%s]:[%s] - spl get_bool_value returned : [%d]
getPortFilteringEnabled
[%s]:[%s] - getPortFilteringEnabled failed and returned [%d]
getPortForwardingEnabled
[%s]:[%s] - getPortForwardingEnabled failed and returned [%d]
[%s]:[%s] - Invalid IPPT enabled value. DMZ,IPPT and Port Forwarding can not be enabled both at same time.
Invalid IPPT Settings object IPPT enabled parameter value. DMZ ,IPPT ,Port Filter and Port Forwarding can not be enabled both at same time.
[%s]:[%s] - Invalid IPPT enabled value. IPPT and Wi-Fi can not be enabled both at same time.
Invalid IPPT Settings object IPPT enabled parameter value. IPPT and Wi-Fi can not be enabled both at same time.
[%s]:[%s] - DMZ Enable validation failed
Invalid Firewall Settings object DMZ IP address parameter value
[%s]:[%s] -  Invalid DMZ IP address:(%s)
Invalid Firewall Settings object DMZ IP address parameter value is not either broadcast ip or not in a subnet or should not be lanIp
[%s]:[%s] -  Invalid DMZ enabled value. DMZ , IPPT and Port Forwarding can not be enabled both at same time.
Invalid Firewall Settings object DMZ enabled parameter value. DMZ , IPPT and Port Forwarding can not be enabled both at same time.
[%s]:[%s] - sys_getWanMonitorSettings failed and returned [%d]
[%s]:[%s] - sys_getWanFailbackSettings failed and returned [%d]
[%s]:[%s] - sys_getWanAutoSwitch failed and returned [%d]
[%s]:[%s] - webui_get_software_update_settings failed and returned [%d]
[%s]:[%s] - %s:%d Invalid Reserved IP Settings host name:(%s) and length %d
[%s]:[%s] - %s:%d Invalid Reserved IP Settings host name:(%s) 
Invalid Reserved IP address settings object name value contains non printable characters
[%s]:[%s] - %s:%d Invalid Reserved IP Settings MAC address:(%s) 
Invalid Reserved IP address settings object MAC address value
[%s]:[%s] - (%s)Duplicate Reserved IP settings Devices MAC address are found
Invalid Reserved IP address settings MAC address %s is duplicate
[%s]:[%s] - %s:%d Invalid Reserved IP Settings IP address:(%s) 
Invalid Reserved IP address settings object IP address value
[%s]:[%s] - %s:%d Invalid Reserved IP Settings IP address:(%s)  should not be lan IP
Invalid Reserved IP address settings object IP address value should not be lan IP
[%s]:[%s] - %s:%d Invalid Reserved IP Settings IP address:(%s) or network address or broadcast address.
Invalid Reserved IP address settings object IP address or network address or broadcast address
[%s]:[%s] - (%s)Duplicate Reserved IP settings Devices IP address are found
Invalid Reserved IP address settings IP address %s is duplicate
[%s]:[%s] - %s:%d Reset Data - NULL pointer encountered for GetMacCount() or GetMacAddrList()  or GetWhiteListMacCount()
Reset Data - Received NULL pointer for mac count or mac list
[%s]:[%s] - %s:%d Reset Data - NULL pointer encountered for GetPortForwardingAppsCount() or GetPortForwardingApplications()  
Reset Data - Received NULL pointer for port forward count or port forward app list
[%s]:[%s] - %s:%d Reset Data - NULL pointer encountered for GetPortFilteringAppsCount() or GetPortFilteringApplications()  
Reset Data - Received NULL pointer for port filtering count or port filtering app list
[%s]:[%s] - %s:%d Reset Data - NULL pointer encountered for GetReservedAddrListCount() or GetReservedAddrList()  
Reset Data - Received NULL pointer for reserved ip count or reserved ip list
[%s]:[%s] - %s - END rc [%d]
sys_getSambaEnabled
[%s]:[%s] - sys_getSambaEnabled failed and returned [%d]
[%s]:[%s] - deviceui_get_file_sharing_display_setting_enabled failed and returned [%d]
sys_getSambaSettings
[%s]:[%s] - sys_getSambaSettings failed and returned [%d]
getAccelerometerEnabled
[%s]:[%s] - getAccelerometerEnabled failed and returned [%d]
getAccelerometerSettings
[%s]:[%s] - getAccelerometerSettings failed and returned [%d]
getMotionDetectionSettings
[%s]:[%s] - getMotionDetectionSettings failed and returned [%d]
[%s]:[%s] - either get Accelerometer Settings enabled
[%s]:[%s] - either get Accelerometer Settings enabled failed
Invalid  Accelerometer Settings enabled failed
[%s]:[%s] - %s - Accelerometer Settings Grange
[%s]:[%s] - %s -  Accelerometer Settings Grange failed
Invalid  Accelerometer Settings Grange failed
[%s]:[%s] - %s - Accelerometer Settings auto_calibration_enabled
[%s]:[%s] - %s - Accelerometer Settings auto_calibration_enabled failed
Invalid  Accelerometer Settings auto_calibration_enabled failed
[%s]:[%s] - %s - Accelerometer Settings retain_calibration_on_power_up
[%s]:[%s] - %s - Accelerometer Settings retain_calibration_on_power_up failed
Invalid  Accelerometer Settings retain_calibration_on_power_up failed
[%s]:[%s] - %s - Accelerometer Settings Mode
[%s]:[%s] - %s - Accelerometer Settings Mode 
[%s]:[%s] - %s -  Accelerometer Settings Mode failed
Invalid  Accelerometer Settings Mode failed
getUSBSerialEnabled
[%s]:[%s] - getUSBSerialEnabled failed and returned [%d]
getUSBSerialSettings
[%s]:[%s] - getUSBSerialProfile failed and returned [%d]
getUSBSerialThresholdSettings
[%s]:[%s] - getUSBSerialThresholdSettings failed and returned [%d]
sys_getSambaPrimaryNetworkEnabled
[%s]:[%s] - sys_getSambaPrimaryNetworkEnabled failed and returned [%d]
sys_getSambaGuestNetworkEnabled
[%s]:[%s] - sys_getSambaGuestNetworkEnabled failed and returned [%d]
[%s]:[%s] - Failed to get File sharing status.
[%s]:[%s] - File sharing is disabled, So no configuration to apply.
[%s]:[%s] - Get either file sharing primary or guest wifi enabled failed. Get File sharing settings failed.
[%s]:[%s] - File sharing top level folder name length is greater. Folder name length:[%d] max folder length:%d
Invalid file sharing settings folder name %s length is more
[%s]:[%s] - Invalid object file sharing settings of content to share : Specified top-level folders 
Invalid File Sharing settings Object content to share parameter value : Folder list can not be blank
[%s]:[%s] - file sharing primary and guest wifi should not disable both.
Invalid file sharing settings Primary and Guest WiFi access enable. Both should not be disabled.
getCellularDataEnabled
[%s]:[%s] - getCellularDataEnabled failed and returned [%d]
getInternationalRoamingEnabled
[%s]:[%s] - getInternationalRoamingEnabled failed and returned [%d]
sys_simGetSwitchMode
[%s]:[%s] - sys_simGetSwitchMode failed and returned [%d]
sys_getActiveModemProfileIndex
sys_getModemProfile
webui_get_automatic_network_selection
[%s]:[%s] - webui_get_automatic_network_selection failed and returned [%d]
sys_getActiveSim
[%s]:[%s] - sys_getActiveSim failed and returned [%d]
[%s]:[%s] - %s - BEGIN mSIMConfigIMSI %s
sys_getSIMSigQltyConfigs
sys_getSIMPriorityConfigs
sys_getSIMAutoAlgoConfigs
sys_getNumSims
sys_getAllSimSlotsInfo
sys_getActiveSimSlot
[%s]:[%s] - %d-%s-APN[%s] UNAME[%s] PWORD[%s]
[%s]:[%s] - %s - Active slot and sent slots are same
sys_getCustomApnFromDatabaseUsingIMSI
[%s]:[%s] - Invalid SIM management settings apn
Invalid APN should not be empty.
[%s]:[%s] - %s-Invalid APN, contains non-ascii characters in apn
Invalid APN, contains non-ascii characters in apn.
Invalid username for SIM management settings.
[%s]:[%s] - Invalid username for SIM management
Invalid username contains non ascii for SIM management settings.
Invalid password for SIM management settings.
[%s]:[%s] - Invalid password for SIM management
Invalid password contains non ascii for SIM management settings.
[%s]:[%s] - %s-Profile[%d] Invalid APN-PDPType[%d]
Profile[%d] Invalid APN-PDPType[%d]
[%s]:[%s] - SIM Configuration Enable Data Usage Limit-EnableDataUsageSwitch[%d] was derived from sim profile priority, ActiveIMSI[%s]
[%s]:[%s] - SIM Configuration Enable Data Usage Limit-EnableDataUsageSwitch[0] was derived from sim profile priority
[%s]:[%s] - Invalid SIM Configuration SIMFailbackEnabled-SIMFailbackTimer in settings
Invalid SIM Configuration SIMFailbackEnabled-SIMFailbackTimer in settings.
[%s]:[%s] - Valid SIM Configuration SIMFailbackEnabled-SIMFailbackTimer in settings
[%s]:[%s] - Invalid SIM Configurations Enable Data Usage Limit-EnableDataUsageSwitch in settings
Invalid SIM Configurations Enable Data Usage Limit-EnableDataUsageSwitch in settings.
[%s]:[%s] - Valid SIM Configuration Enable Data Usage Limit-EnableDataUsageSwitch in settings
[%s]:[%s] - SIM Configuration Enable Data Usage Limit-EnableDataUsageSwitch[%d] was derived from sim profile priority
sys_getGPSLocalNMEA
[%s]:[%s] - sys_getGPSLocalNMEA failed and returned [%d]
[%s]:[%s] - Failed to get local gps enabled status
[%s]:[%s] - Failed to get local gps protocol
[%s]:[%s] - Failed to get local gps port
[%s]:[%s] -  Invalid IP address:(%s)
Invalid local GPS Settings object IP address value
[%s]:[%s] - Failed to get local gps store and forward enabled status
[%s]:[%s] - Failed to get local gps send frequency
[%s]:[%s] - Failed to get local gps nmea status
[%s]:[%s] - %s - GPSRemote Reporting Time Interval Enabled is invalid
GPSRemote Reporting Time Interval Enabled is invalid
[%s]:[%s] - %s - GPSRemote Reporting Distance Interval Enabled is invalid
GPSRemote Reporting Distance Interval Enabled is invalid
[%s]:[%s] - %s - GPSRemote Reporting Stationary Enabled is invalid
GPSRemote Reporting Stationary Interval Enabled is invalid
[%s]:[%s] - %s - GPSRemote Time Interval is invalid
GPSRemote Time Interval is invalid
[%s]:[%s] - %s - GPSRemote Distance Interval is invalid
GPSRemote Distance Interval is invalid
[%s]:[%s] - %s - GPSRemote Idle Time Interval is invalid
GPSRemote Idle Time Interval is invalid
[%s]:[%s] - %s - GPSRemote Idle Time Interval is less than Time Interval
GPSRemote Idle Time Interval is less than Time Interval
insg_mqtt_get_deviceagent_enabled
[%s]:[%s] - insg_mqtt_get_deviceagent_enabled failed and returned [%d]
insg_mqtt_get_checkin_interval
[%s]:[%s] - insg_mqtt_get_checkin_interval failed and returned [%d]
insg_mqtt_get_ping_interval
[%s]:[%s] - insg_mqtt_get_ping_interval failed and returned [%d]
[%s]:[%s] - Failed to get device agent enabled status
Invalid Device agent enabled value.
[%s]:[%s] - Failed to get device agent checkin duration
Invalid Device agent checkin duration.
[%s]:[%s] - %s - Invalid Device agent HeartBeatTime[%d]
Invalid Device agent HeartBeatTime
sys_getSupportedRadioTechnologies
[%s]:[%s] - sys_getSupportedRadioTechnologies failed and returned : [%d]
[%s]:[%s] - sys_getNR5GDisableMode failed and returned : [%d]
[%s]:[%s] - webui_get_app_configurations failed with error code [%d]
[%s]:[%s] - webui_get_app_configurations [%s] count failed with error code [%d]
MinimumPasscodeLength
set_passcode
[%s]:[%s] - %s:%d AdminPassword is empty
[%s]:[%s] - %s:%d AdminPassword lenght is less than 6 Chars: %s
[%s]:[%s] - %s:%d AdminPassword lenght is greater than 32 chars: %s
[%s]:[%s] - %s:%d AdminPassword entered is invalid %s
[%s]:[%s] - %s:%d securityAnswer is empty
[%s]:[%s] - %s:%d securityAnswer containsNonPrintable chars: %s
[%s]:[%s] - AdminPassword Object validation failed
Invalid Admin password settings
[%s]:[%s] - %s: Invalid LANSettings->RouterIPv4Address(%s)
Invalid Private IP address or network address or broadcast address . 
[%s]:[%s] -  Invalid LANSettings->RouterSubnetMask(%s)
Invalid LAN Settings subnetmask.
[%s]:[%s] - %s - lanSettings->mask_format = 1
[%s]:[%s] - %s - Prefix to SubnetMask[%s]
[%s]:[%s] - %s - lanSettings->mask_format = 0
[%s]:[%s] -  lan settings dhcp address range start is empty
Invalid LAN Settings dhcp address range start is empty.
[%s]:[%s] -  Invalid lan settings dhcp address range start(%s)
Invalid LAN Settings dhcp address range start
[%s]:[%s] - lan settings dhcp is Disabled (%d)
lan settings dhcp is Disabled
[%s]:[%s] -  lan settings dhcp address range end is empty
Invalid LAN Settings dhcp address range end is empty.
[%s]:[%s] -  Invalid lan settings dhcp address range end(%s)
Invalid LAN Settings dhcp address range end.
[%s]:[%s] - [%s] Number Of DHCP Clients:%u setting
DHCPLeaseTimeMaxLimit
[%s]:[%s] -  Invalid lansettings->dhcpleasetime:(%d)
Invalid DHCP leasetime configured for lan settings .
getBluetoothEnabled
[%s]:[%s] - getBluetoothEnabled failed and returned [%d]
[%s]:[%s] - Failed to get Bluetooth Settings enabled status
Invalid Bluetooth Settings enabled status of  parameter
Mobile Phone
Home Entertainment
Game System
[%s]:[%s] - %s - BEGIN [%d], [%s] 
[%s]:[%s] - %s - END %s
[%s]:[%s] - %s - BEGIN [%s] 
[%s]:[%s] - %s - webui_get_software_update_status failed, returned error %d. Try webui_cli get_software_update_status from command line.
[%s]:[%s] - %s - webui_get_software_update_status success, status[%d]  value[%d]
[%s]:[%s] - %s - BEGIN serialport[%s], cmdtosend [%s] 
[%s]:[%s] - %s - serial port is:%s status:%d
[%s]:[%s] - %s - BEGIN nodeElement[%s]
[%s]:[%s] - %s - sys_getNetworkSIMLockStatus() faiiled with:%d
[%s]:[%s] - %s - carrier lock enabled
[%s]:[%s] - %s - carrier lock disabled
[%s]:[%s] - %s - Invalid Element
"gpio": {
"ignition_sense_state" : 
[%s]:[%s] - %s -sys_getIgnitionEnabled failed,returned %d.Try sysintcli getIgnitionEnabled from command line
"ignition_sense_state" : -1,
"ignition_sense_voltage" : 
[%s]:[%s] - %s -sys_getIgnitionVoltage failed,returned %d.Try sysintcli getIgnitionVoltage from command line
"ignition_sense_voltage" : -1,
sys_getGPIOValue
"gpio1_state" : 
[%s]:[%s] - %s -sys_getGpioPin1Enable failed,returned %d. Try sysintcli getGpioPin1Enable from command line
"gpio1_state" : -1,
"gpio2_state" : 
[%s]:[%s] - %s -sys_getGpioPin2Enable failed, returned %d. Try sysintcli getGpioPin2Enable from command line
"gpio2_state" : -1
"ecompass": {
bluetooth_get_ecompass_coordinates
[%s]:[%s] - %s - bluetooth_get_ecompass_coordinates failed, returned %d. Try sysintcli getbluetooth_get_ecompass_coordinates from command line
"x" : 0,
"y" : 0,
"gps": {
"gps_state" : 
[%s]:[%s] - %s - sys_getGPSEnabled failed, returned %d. Try sysintcli getGPSEnabled from command line
"gps_state" : -1,
[%s]:[%s] - %s - gpsStatus: %d
"gps_status" : 
[%s]:[%s] - %s - sys_getGPSStatus failed with error code: %d, try sysintcli getGPSStatus from command line.
"gps_status" : -1,
[%s]:[%s] - %s - sys_getGPSFixData failed with error code: %d. Try sysintcli getGPSFixData from command line.
"gps_latitude": 0,"gps_longitude": 0,"gps_heading": 0,"gps_speed": 0,"gps_altitude": 0,"gps_satelite_view": 0
[%s]:[%s] - %s - system interface API successfully get GPS fix data.
"gps_latitude": 
,"gps_longitude": 
,"gps_heading": 
,"gps_speed": 
,"gps_altitude": 
,"gps_satelite_view": 
[%s]:[%s] - %s - is_miliconds=%d
webui_get_software_update_settings
OptoutEnabled
[%s]:[%s] - %s - BEING 
[%s]:[%s] - %s - No connected devices available
[%s]:[%s] - %s - sys_getConnectedDeviceList returned count %d, allocate sufficient memory
[%s]:[%s] - %s - sys_getConnectedDeviceList failed with error code %d. Try sysintcli getConnectedDeviceList from command line.
mac_address
ipv4_address
host_name
"Unknown"
connection_type
"tethering cable"
"Ethernet"
data_usage
%m/%d/%Y
%Y-%m-%d 00:00:00
[%s]:[%s] - %s- mac of connected device [%s] start_date[%s]
[%s]:[%s] - %s - total_bytes_rx[%llu] total_bytes_tx[%llu]
[%s]:[%s] - %s - sys_getDataUsageLog failed with error code %d. Try sysintcli getDataUsageLog from command line.
ipv6_address
link_local_address
network_type
sys_getBatteryStatus
battery_voltage
ext_power_state
battery_level
temperature
sys_getGPSFixData
gps_state
sys_getGPSEnabled
gps_status
gps_latitude
gps_longitude
gps_heading
gps_speed
gps_altitude
gps_accuracy
gps_satelite_view
sys_getWiFiCarrierEnabled
sys_getWiFiGuestCarrierEnabled
2.4G_ssid_primary
sys_getWiFiPrimaryProfile
5G_ssid_primary
2.4G_ssid_guest
sys_getWiFiGuestProfile
5G_ssid_guest
ignition_sense_state
ignition_sense_voltage
gpio1_state
gpio2_state
[%s]:[%s] - %s - vectorSize [%d] 
[%s]:[%s] - %s - childName [%s] 
serial_port
[%s]:[%s] - %s - serialPort [%s] 
ReservedIpList
[%s]:[%s] - %s - sys_getConnectedDeviceList returned %d, count:[%d]
[%s]:[%s] - %s - sys_getConnectedDeviceList failed, returned %d. Try sysintcli getConnectedDeviceList from command line.
sys_getDHCPReservedAddrList
[%s]:[%s] - %s sys_getDHCPReservedAddrList returned %d, reservedIpCount:[%d]
DeviceType
ReservedIpMAC
DeviceName
ReservedIpAddress
[%s]:[%s] - %s - sys_getAllDevicesList returned %d, count:[%d]
[%s]:[%s] - %s - sys_getAllDevicesList failed, returned %d. Try sysintcli getAllDevicesList from command line.
[%s]:[%s] - %s - Device with mac [%s] already exist in reserved IP list
[%s]:[%s] - %s - Device with mac [%s] is connected through LAN
SerialPortConfiguration
SessionSerialPort
BaudRate
StopBits
DataBits
FlowControl
ReceiveBufferSizeThreshold
ReceiveTimeThreshold
[%s]:[%s] - %s - sys_getBrandingCarrier() failed, returned error %d, try sysintcli getBrandingCarrier from command line
[%s]:[%s] - %s - sys_getActiveModemProfileIndex() failed, returned error %d, try sysintcli getActiveModemProfileIndex from command line
[%s]:[%s] - %s - sys_getCarrierModemProfile() failed, returned error %d, try sysintcli getCarrierModemProfile from command line
[%s]:[%s] - %s - profile.apn:%s 
[%s]:[%s] - %s - wan_status: %d
[%s]:[%s] - %s - cell_connection_status: %d
[%s]:[%s] - %s - sys_getCellularDataConnectionStatus failed, returned error code %d. Try sysintcli getCellularDataConnectionStatus from command line
[%s]:[%s] - %s - sys_getCellularServiceStatus failed, returned error code %d. Try sysintcli getCellularServiceStatus from command line.
sys_getBrandingCarrier
[%s]:[%s] - %s - technology: [%d]
[%s]:[%s] - %s - band is %d, pci is %d.
[%s]:[%s] - %s - sys_getCellular5GBand failed returning error code %d 
%s%s%s%s%d
[%s]:[%s] - %s - Band is [%s]
[%s]:[%s] - %s - 5G is not available.
[%s]:[%s] - %s - sys_getCellularBand failed returning error code %d
[%s]:[%s] - %s - 3g Band is [%s]
[%s]:[%s] - %s - sys_getCellular3GBand failed returning error code %d
dua_get_interface_data_usage_info
[%s]:[%s] - %s - imsi[%s], iccid[%s]
[%s]:[%s] - %s - currentSlot[%d], multisim[%d]
sim_slot_number
is_active
connection_status
[%s]:[%s] - entered non pin cases
session_tx
session_rx
session_duration
billing_start_date
operator
ipv4_addr
ipv6_addr
[%s]:[%s] - %s - stats.cell_id = %s 
[%s]:[%s] - %s - cell_id5g = %s 
anchor_band_number
sys_getAnchorBandNumber
anchor_band_frequency
sys_getAnchorBandFrequency
network_5g_bearer
bandwidth
sys_getBandWidth
ca_bandwidth
sys_getCABandWidth
Pin3Settings
[%s]:[%s] - %s- Invalied option for Pin1
IgnitionSenseOptions
[%s]:[%s] - %s- Invalied option for Pin1 Ignition Sense Options
ShutdownTime
ShutdownVoltage
IOSetting
IOSettingName
LowStateName
HighStateName
CurrentState
CreateBannerAlert
Pin4Settings
"basic_settings": {"firmware": {
"modem_version": "
","device_version": "
","sku":"
","cute_version": "
[%s]:[%s] - %s - sys_getSystemVersion failed, returned %d. Try sysintcli getSystemVersion from command line
"hardware": {
"model_name": "
"model_number": "
[%s]:[%s] - %s: Not a demo device. Nothing to do.
[%s]:[%s] - %s - model_name : %s
[%s]:[%s] - %s - sys_getDeviceModelName failed, returned %d. Try sysintcli getDeviceModelName from command line
"mac_address": "
[%s]:[%s] - %s - sys_getHardwareInfo failed, returned %d. Try sysintcli getHardwareInfo from command line
"mac_address" :""
"features_supported": {
"usb_tethering": 
[%s]:[%s] - %s -getUSBTetheringCarrierEnabled failed,returned %d. Try sysintcli from command line
"wifi_access_point": 
[%s]:[%s] - %s -getWiFiCarrierEnabled failed,returned %d. Try sysintcli from command line
"wifi_dual_ssid": 
[%s]:[%s] - %s -getWiFiGuestCarrierEnabled failed,returned %d. Try sysintcli from command line
[%s]:[%s] - %s - getGPSCarrierEnabled failed,returned %d. Try sysintcli from command line
"powersave": 
[%s]:[%s] - %s -getPowerSaveCarrierEnabled, failed,returned %d. Try sysintcli from command line
"ipv6": 
[%s]:[%s] - %s -getIPv6CarrierEnabled failed,returned %d. Try sysintcli from command line
[%s]:[%s] - %s -getMTSMSCarrierEnabled failed,returned %d. Try sysintcli from command line
[%s]:[%s] - %s -getMOSMSCarrierEnabled failed,returned %d. Try sysintcli from command line
"parental_control": 
[%s]:[%s] - %s getParentalControlsCarrierEnabled failed,returned %d. Try sysintcli from command line
"ethernet": 
[%s]:[%s] - %s -getEthernetCarrierEnabled failed,returned %d. Try sysintcli from command line
"accelerometer": 
[%s]:[%s] - %s -getAccelerometerCarrierEnabled failed,returned %d. Try sysintcli from command line
"battery_pack": 
[%s]:[%s] - %s-getUniversalChargingCarrierEnabled failed,returned %d. Try sysintcli from command line
"usb_serial": 
[%s]:[%s] - %s -getUSBSerialCarrierEnabled failed,returned %d. Try sysintcli from command line
"ip_passthrough": 
[%s]:[%s] - %s -getIPPassthroughCarrierEnabled failed,returned %d. Try sysintcli from command line
"webui": 
[%s]:[%s] - %s -getWebUICarrierEnabled failed,returned %d. Try sysintcli from command line
"deviceui": 
[%s]:[%s] - %s -getDeviceUICarrierEnabled failed,returned %d. Try sysintcli from command line
[%s]:[%s] - %s -getVPNCarrierEnabled failed,returned %d. Try sysintcli from command line
[%s]:[%s] - %s -getDNSCarrierEnabled failed,returned %d. Try sysintcli from command line
[%s]:[%s] - %s -getNUACarrierEnabled failed,returned %d. Try sysintcli from command line
[%s]:[%s] - %s -getANSCarrierEnabled failed,returned %d. Try sysintcli from command line
"file_sharing": 
[%s]:[%s] - %s -getSambaCarrierEnabled failed,returned %d. Try sysintcli from command line
[%s]:[%s] - %s -getDataUsageCarrierEnabled failed,returned %d. Try sysintcli from command line
[%s]:[%s] - %s -getLEDCarrierEnabled, failed,returned %d. Try sysintcli from command line
"bluetooth": 
[%s]:[%s] - %s -getBluetoothCarrierEnabled failed,returned %d. Try sysintcli from command line
"location_survey": 
[%s]:[%s] - %s-getLocationSurveyCarrierEnabled, failed,returned %d. Try sysintcli from command line
"dual_sim": 
[%s]:[%s] - %s-getCarrierDualSimFeatureEnabled failed,returned %d. Try sysintcli from command line
"device_agent": 
[%s]:[%s] - %s -getDeviceAgentCarrierEnabled failed,returned %d. Try sysintcli from command line
"supported_commands": [
"REMOVE_CREDENTIALS",
"RESTART",
"FACTORY_RESET",
"GET_DEBUG_LOGS",
"FOTA_CHECK",
"GET_FOTA_STATUS",
"CFG_UPDATE",
"DO_CHECKIN",
"GET_FULL_CONFIG",
"RESET_DATA_USAGE",
"DO_SOFT_WPS"
"languages_supported": [
"English",
"Deutsch",
"Dansk",
"Eestlane",
"Finnish",
"Japanese",
"Norsk",
"Svenska"
sys_getBluetoothEnabled
BluetoothEnabled
sys_getWanMonitorSettings
sys_getWanFailbackSettings
KeepAliveEnabled
WanLookupAddress1
WanLookupAddress2
WanLookupAddress3
WanKeepAliveInterval
WanNumberofAttempts
WanRetryInterval
WANFailoverEnabled
WanFailoverInterval
WANFailbackEnabled
WanFailbackInterval
webui_get_login_settings
AdminPassword
AdminPasswordSecurityAnswer
AdminPasswordSecurityQuestion
"What is your date of birth? (mm/dd/yyyy)"
"What is your mother's maiden name?"
"What is the name of the street you grew up on?"
"Invalid Question"
AdminPasswordOnDisplay
deviceui_get_admin_password_enabled
sys_getLANSettings
sys_getIPv6Enabled
IPv4Passthrough
sys_getIPPassthroughEnabled
IpptInterface
DHCPEnabled
RouterIPv4Address
RouterSubnetMask
[%s]:[%s] - %s - settings.mask_format == 0
[%s]:[%s] - %s - settings.mask_format == 1
DHCPLeaseTime
DHCPAddressRangeStart
DHCPAddressRangeEnd
IPv6Enabled
[%s]:[%s] - %s - 2.4 GHz Wi-Fi Primary profile mode:[%d] channel:[%d]
[%s]:[%s] - %s - 5GHz Wi-Fi Primary profile mode:[%d] channel:[%d] bandwidth [%d] 
WiFiEnabled
sys_getWiFiEnabled
[%s]:[%s] - %s : sys_getWiFiEnabled returned : [%d] wifi_enable:%d
WiFiAllowChangesOnTouchScreen
deviceui_get_wifi_display_setting_enabled
[%s]:[%s] - %s : deviceui_get_wifi_setting_enabled returned : [%d] wifi_disp_setting_enabled=%d
WiFiMaxClients
[%s]:[%s] - %s : sys_getWiFiMaxClients returned : [%d] client_count: [%d]
WiFi24GHzBand
[%s]:[%s] -  %s : get WiFi 2.4GHz Profile Enabled returned [%d]
"Primary network"
"Guest network"
WiFi5GHzBand
[%s]:[%s] -  %s : get WiFi 5 GHz Profile Enabled returned [%d]
WiFi24GHz80211Mode
"802.11bgn"
"802.11bgn/ax"
WiFi24GHzChannel
WiFi5GHz80211Mode
"802.11acn"
"802.11ac"
"802.11acn/ax"
WiFi5GHzChannel
WiFi5GHzBandwidth
[%s]:[%s] - %s profile.name:[%s] profile.ssid:[%s] profile.key:[%s] profile.mode:[%d] profile.channel:[%d] profile.sectype:[%d] profile.bandwidth:[%d] profile.privacy:[%d] profile.wps_enabled:[%d] profile.bcast_ssid_enabled:[%d] 
deviceui_get_primary_wifi_info_display_settings
[%s]:[%s] - %s Dislpay wifi_name[%d] wifi_passwd[%d] 
WiFiSSID
WiFiSecurityMode
"WPA2 Personal PSK (AES)"
"WPA/WPA2 Mixed Mode"
"WPA3/WPA2 Transition"
"Open Enhanced"
WiFiSSIDBroadcastEnabled
WiFiPrivacySeparationEnabled
WiFiWPSEnabled
WiFiNameOnDisplay
WiFiPasswordOnDisplay
[%s]:[%s] - %s Guest profile.name:[%s] profile.ssid:[%s] profile.key:[%s] profile.mode:[%d] profile.channel:[%d] profile.sectype:[%d] profile.bandwidth:[%d] profile.privacy:[%d] profile.wps_enabled:[%d] profile.bcast_ssid_enabled:[%d] 
deviceui_get_guest_wifi_info_display_settings
[%s]:[%s] - %s Guest Dislpay wifi_name[%d] wifi_passwd[%d] 
WiFiGuestSSID
WiFiGuestKey
WiFiGuestSecurityMode
WiFiGuestSSIDBroadcastEnabled
WiFiGuestPrivacySeparationEnabled
WiFiGuestWPSEnabled
WiFiGuestNameOnDisplay
WiFiGuestPasswordOnDisplay
sys_getPortFilteringApplicationList
[%s]:[%s] -  %s - sys_getPortFilteringApplicationList returned %d, count:[%d]
PortFilteringEnabled
PortFilteringCustomApplications
PortFilteringHTTP
PortFilteringEmail
PortFilteringHTTPS
PortFilteringTelnet
PortFilteringFTP
[%s]:[%s] -  %s - list[%d].name:[%s] enable:[%d] start_port:[%d] end_port:[%d] type:[%d]
AppEnabled
AppStartPortNumber
AppEndPortNumber
sys_getManualDNSSettings
sys_getManualDNSEnabled
ManualDNSEnabled
[%s]:[%s] - %s - manualDNS_enabled:[%d] 
ManualDNSAddress1
[%s]:[%s] - %s - primary_ip_address:[%s] 
ManualDNSAddress2
[%s]:[%s] - %s - secondary_ip_address:[%s] 
IPv6TransparentModeEnabled
sys_getIPv6TransparentModeEnabled
[%s]:[%s] - %s - IPv6TransparentModeEnabled:[%d]
VPNPassthroughEnabled
sys_getVPNPassthroughEnabled
[%s]:[%s] - %s - VPNPassthroughEnabled:[%d]
DMZEnabled
sys_getDMZEnabled
[%s]:[%s] - %s - DMZEnabled:[%d]
DMZIpAddress
[%s]:[%s] - %s - DMZIpAddress:[%s] 
WANPingEnablement
[%s]:[%s] - %s - isICMPEnabled Status:[%d]
GPSEnabled
[%s]:[%s] - %s - GPSEnabled:[%d] 
GPSTurnOff
sys_getGPSStartupState
[%s]:[%s] - %s - GPSStartUpEnabled:[%d] 
GPSNMEAOverWiFiEnabled
sys_getNMEAOverWiFiEnabled
[%s]:[%s] - %s - GPSNmeaOverWifiEnabled:[%d] 
GPSNMEAOverWiFiPortNumber
sys_getNMEAOverWiFiSettings
[%s]:[%s] - %s - Gps Nmea port number:[%d] 
GPSRemoteEnabled
sys_getGPSRemoteEnabled
GlobalDeviceID
sys_getGPSDeviceId
[%s]:[%s] - GPSRemoteGlobalDeviceID:[%s]
GPSRemoteServers
ServerName
Reporting
StoreAndForward
ServerAddress
PortNumber
NetworkProtocol
GPSReportingMode
GPSReportingOptions
ReportingTimeIntervalEnabled
ReportingTimeInterval
ReportingDistanceIntervalEnabled
ReportingDistance
ReportStationayEnabled
ReportStationary
SIMSlotNumber
SignalStrengthFailoverTimer
SignalStrength
SIMFailbackEnabled
SIMFailbackTimer
SignalStrengthFailoverEnabled
EnableDataUsageSwitch
EnableAutoSIMSwitching
NetworkTechnology
RoamingEnabled
sys_getInternationalRoamingEnabled
FiveGNetworkMode
Priority
Authentication
"PAP or CHAP"
UserName
Password
CellularDataEnabled
sys_getCellularDataEnabled
EnableAutoNetworkSelection
[%s]:[%s] - %s - Automatic network selection enabled : %d
[%s]:[%s] - %s - webui_get_automatic_network_selection() failed, returned error %d, try webui_cli get_automatic_network_selection from command line
IpptEnabled
sys_getIPPassthroughSettings
": false,"
sys_getAutoConnectVpnEnabled
sys_getOpenVpnConfigFileSettings
AutoConnectVPNEnabled
CertificatesURL
Username
LogsEnabled
LogsDuration
[%s]:[%s] - %s:Setting  WEBUI Enabled: [%d], Log Lifetime: [%d]
[%s]:[%s] -  %s - getAccelerometerSettings g_range=%d auto_calibration_enabled=%d retain_calibration_on_power_up=%d quality_factor_threshold=%d settings.mode=%d sample_rate=%d
AccelerometerEnabled
AutoCalibration
RetainCalibrationDataOnRestart
QualityFactor
"motiondetection"
"driverbehavior"
MotionDetection
[%s]:[%s] -  %s -getMotionDetectionSettings threshold=%d count=%d hold_time=%d
Threshold
HoldTime
DriverBehavior
getDriverBehaviorSettings
ClearTime
Acceleration
RightTurn
LeftTurn
Vertical
Magnitude
[%s]:[%s] -  %s -sys_getDriverBehaviorSettings braking_thresholds[%d] threshold = %d set_time = %d clear_time = %d max_time = %d
[%s]:[%s] -  %s -sys_getDriverBehaviorSettings acceleration_thresholds[%d] threshold = %d et_time = %d clear_time = %d max_time = %d
[%s]:[%s] -  %s -sys_getDriverBehaviorSettings right_turn_thresholds[%d] threshold = %d set_time = %d clear_time= %d max_time = %d
[%s]:[%s] -  %s -sys_getDriverBehaviorSettings left_turn_thresholds[%d] threshold = %d set_time = %d clear_time = %d  max_time = %d
[%s]:[%s] -  %s -sys_getDriverBehaviorSettings vertical_thresholds[%d] threshold = %d set_time = %d clear_time = %d max_time = %d
[%s]:[%s] -  %s -sys_getDriverBehaviorSettings magnitude_thresholds[%d] threshold = %d set_time = %d clear_time = %d max_time = %d
sys_gps_local_nmea_config_t
LocalGPSEnabled
IPAddress
SendInterval
[%s]:[%s] - %s - gps local name [%s] gpsResponse[%s] 
insg_mqtt_get_heartbeat_timer_enabled
[%s]:[%s] - %s heartbeat enable value =%d 
DeviceAgentEnabled
CheckinDuration
HeartBeatTimerEnabled
HeartBeatTimer
[%s]:[%s] - %s - MiFi IP Address = %s
[%s]:[%s] - %s - MiFi Subnet Mask = %s
[%s]:[%s] - %s - MiFi Subnet = %d
[%s]:[%s] - %s - User Subnet = %d
[%s]:[%s] - Invalid Port Filtering enabled value. Port Filtering and  IPPT can not be enabled both at same time.
Invalid IPPT Settings object Ippt enabled parameter value. Port Filtering and IPPT can not be enabled both at same time.
[%s]:[%s] - %s index[%d]: port range check failed start_port %d
Invalid Port Filtering object. Custom application start port %d is out of range
[%s]:[%s] - %s index[%d]: port range[1 to 65535] check failed end_port %d
Invalid Port Filtering object. Custom application end port %d is out of range
[%s]:[%s] - %s index[%d]: compare both ports failed start_port %d end_port %d
Invalid Port Filtering object. Custom application start port %d is greater than end port %d
[%s]:[%s] - %s index[%d]: App name is empty
Invalid Port Filtering object. Custom application is empty
[%s]:[%s] - Invalid Custom application name:(%s)
Invalid Port Filtering object. Custom application name Contains non printable characters.
[%s]:[%s] -  %s - custom app name is duplicate
Invalid Port Filtering object. Custom application name [%s] is duplicate.
[%s]:[%s] - PortFilter Object validation failed
sys_getMacFilterList
[%s]:[%s] - %s - sys_getMacFilterList returned %d, count:[%d]
[%s]:[%s] - %s - list[%d].mac:[%s] device_name:[%s] .device_type:[%d] filter_type:[%d]
DeviceMacAddress
DeviceMacAddress": "
[%s]:[%s] - %s - GPSRemote Enabled value is invalid
GPSRemote Enabled value is invalid
[%s]:[%s] - %s - GPSRemote Global Device ID is invalid
GPSRemote Global Device ID is invalid
[%s]:[%s] - %s - GPSRemote Global Device ID is invalid doesn't contains alphanumeric
GPSRemote Global Device ID is invalid doesn't contains alphanumeric
[%s]:[%s] - %s - GPSRemote Server Name is invalid for index: %d
imran GPSRemote Server Name is invalid for index: %d
[%s]:[%s] - %s - GPSRemote Reporting is invalid for index: %d
GPSRemote Reporting is invalid for index: %d
[%s]:[%s] - %s - GPSRemote IP address is invalid for index: %d
GPSRemote IP address is invalid for index: %d
[%s]:[%s] - %s - GPSRemote port is invalid for index: %d
GPSRemote port is invalid for index: %d
[%s]:[%s] - %s - GPSRemote protocol is invalid for index: %d
GPSRemote protocol is invalid for index: %d
[%s]:[%s] - %s - GPSRemote Reporting Time Interval Enabled is invalid for index: %d
GPSRemote Reporting Time Interval Enabled is invalid for index: %d
[%s]:[%s] - %s - GPSRemote Reporting Distance Interval Enabled is invalid for index: %d
GPSRemote Reporting Distance Interval Enabled is invalid for index: %d
[%s]:[%s] - %s - GPSRemote Time Interval is invalid for index: %d
GPSRemote Time Interval is invalid for index: %d
[%s]:[%s] - %s - GPSRemote Distance Interval is invalid for index: %d
GPSRemote Distance Interval is invalid for index: %d
[%s]:[%s] - %s - GPSRemote Idle Time Interval is invalid for index: %d
GPSRemote Idle Time Interval is invalid for index: %d
[%s]:[%s] - %s - GPSRemote Idle Time Interval is less than Time Interval for index: %d
GPSRemote Idle Time Interval is less than Time Interval for index: %d
[%s]:[%s] - GPS Remote Object validation failed
sys_getMultiSimEnabled
[%s]:[%s] - Data Usage not available
[%s]:[%s] - Data Usage not available- cycle end date incorrect
[%s]:[%s] - %s - sys_getActiveSimSlot failed with error code: %d, try sysintcli getActiveSimSlot from command line
[%s]:[%s] - %s- active slot is %d 
%s-%s-%s
%d-%s-%s
[%s]:[%s] - %s - start_date[%s], i_start_year[%s], i_start_month[%s], i_start_date[%s]
%s-%s-%s 00:00:00
[%s]:[%s] - DUA statistics is incorrect
[%s]:[%s] - DUA usage is %llu
"clients": [
{ "mac_address" : "
","ipv4_address" : "
","host_name" : "
","connection_type" : "
tethering cable
Ethernet
%Y-%m-%d
","data_usage": 
","data_usage": 0
"clients": [],
[%s]:[%s] - %s - Battery Detection Present in Moretti 
"battery": {
"battery_voltage": 
 ,"ext_power_state": 
,"battery_level": 
,"temperature": 
[%s]:[%s] - %s - sys_getBatteryStatus failed, returned %d. Try sysintcli getBatteryStatus from command line
"battery_voltage" : -1,"ext_power_state" : -1,"battery_level" : -1,"temperature" : -1
"wifi": {
"2.4G_ssid_primary": "
[%s]:[%s] - %s - sys_getWiFiPrimaryProfile 2.4GHz failed with error code %d 
"2.4G_ssid_primary": "",
"5G_ssid_primary": "
[%s]:[%s] - %s - sys_getWiFiPrimaryProfile 5GHz failed with error code %d 
"5G_ssid_primary": "",
"2.4G_ssid_guest": "
[%s]:[%s] - %s - sys_getWiFiGuestProfile 2.4GHz failed with error code %d 
"2.4G_ssid_guest": "",
"5G_ssid_guest": "
[%s]:[%s] - %s - sys_getWiFiGuestProfile 5GHz failed with error code %d 
"5G_ssid_guest": ""
"2.4G_ssid_guest": "","5G_ssid_guest": ""
"wifi": {},
"wan": {
"sim": {
"active_slot" : 1,
"connection_status": 
,"apn": "
"data_tx": 
,"data_rx": 
,"session_tx": 
,"session_rx": 
,"session_duration": 
,"ipv4_addr": "
","ipv6_addr": "
","billing_start_date": "
[%s]:[%s] - %s - sys_getCellular5GBand failed returning error code %d
"operator": "
","rat": "
","rssi": 
,"rsrp": 
,"rsrq": 
,"sinr": 
,"ptn": "
","imsi": "
","iccid": "
","tower": "
","band": 
/opt/nvtl/data/config_module/config_restart_cookie
[%s]:[%s] - response is [%s]
/opt/nvtl/data/config_module/config_reset_cookie
FACTORY_RESET
Configured
Checking VPN connection
Connected
Disconnected
Connection failed: No Internet access.
Connection failed: VPN Server not found
Connection failed: Invalid Username or Password
Connection failed: Certificate file is invalid
Connection failed: Key file is invalid
Connection failed: See the log for more information.
Not configured
[%s]:[%s] - %s - sys_getVpnConnectionStats failed to read vpn connection stats, with error code: %d. Try sysintcli getVpnConnectionStats from command line
VpnConnectionStatus
VpnConnectionTime
WiFiAdvancedSettings
WiFiNetworkSettings
WiFiGuestNetworkSettings
AdminPasswordSettings
LANSettings
PortFilteringSettings
PortForwardingSettings
MACFilterSettings
BlockedDevices
WhiteListedDevices
ManualDNSSettings
ReservedIpSettings
IpptSettings
VpnSettings
VpnStatus
CarrierConnectionSettings
FirewallSettings
LogsSettings
GPSSettings
GPSRemoteSettings
DataUsageSettings
CarrierSettings
SIMManagementSettings
SIMConfigurations
AccelerometerSettings
GPSLocalSettings
USBSerialSettings
Preferences
DeviceAgent
BluetoothSettings
SoftwareUpdate
WanSettings
basic_settings
ecompass
carrier_lock
timestamp
GPIOSettings
golden_record
wan_data_usage
oob_connected_clients
IPSecVPNSettings
[%s]:[%s] -  Invalid Port Forward enabled value. Port Forwarding and DMZ can not be enabled both at same time.
Invalid Firewall Settings object DMZ enabled parameter value. Port Forwarding and DMZ can not be enabled both at same time.
basic_string::erase
%s: __pos (which is %zu) > this->size() (which is %zu)
[%s]:[%s] - %s defaultApp ip address is empty
Invalid Port Forwarding object. Application IP address is empty
[%s]:[%s] - %s defaultApp ip address=%s is non network format
Invalid Port Forwarding object.Default  Application IP address %s is not a valid
[%s]:[%s] - %s defaultApp CheckForSameSubnet=%s failed
Invalid Port Forwarding object. Default Application IP address %s is not in sub network
[%s]:[%s] - %s defaultApp check IsNetworkOrBroadcastIp %s failed
Invalid Port Forwarding object. Default Application IP address %s is not a broadcast IP
[%s]:[%s] - %s defaultApp check lanip %s failed
Invalid Port Forwarding object. Default Application IP address %s should not be lanIP
[%s]:[%s] - %s App name is empty
Invalid Port Forwarding object. Custom application name is empty
Invalid Port Forwarding object. Custom application name Contains non printable characters.
Invalid Port Forwarding object. Custom application name [%s] is duplicate.
[%s]:[%s] - %s customApp ip address is empty
Invalid Port Forwarding object. Custom application IP Address is empty
[%s]:[%s] - %s customApp ip address=%s is non network format
Invalid Port Forwarding object. Custom application IP Address %s is not valid
[%s]:[%s] - %s customApp CheckForSameSubnet=%s failed
Invalid Port Forwarding object. Custom application IP address %s is not in sub network
[%s]:[%s] - %s customApp check IsNetworkOrBroadcastIp %s failed
Invalid Port Forwarding object. Custom application IP address %s is not a broadcast IP
[%s]:[%s] - %s customApp check lanip %s failed
Invalid Port Forwarding object. Application IP address %s should not be lanIP
[%s]:[%s] - %s customApp Satrt Port is out of Range check failed %d
Invalid Port Forwarding object. Custom application start port %d is out of range
[%s]:[%s] - %s customApp End Port is out of Range check failed %d
Invalid Port Forwarding object. Custom application end port %d is out of range
[%s]:[%s] - %s customApp Start Port[%d] is greater than End Port[%d]check failed
Invalid Port Forwarding object. Custom application start port %d is greater than end port %d
[%s]:[%s] - %s:customApp External Port[%d] same as Internal Port[%d],portmap type Translate
Invalid Port Forwarding object. Custom application Externel port %d is same as Internal port %d
[%s]:[%s] - PortForward Object validation failed
[%s]:[%s] - %s - error  BEGIN rc [%d]
sys_getMacFilterWhiteListEnabled
MACFilterEnabled
[%s]:[%s] - %s - MacFilter_enabled:[%d]
DevicesList
[%s]:[%s] - %s -sys_getMacFilterList returned count: %d to allocate suffient memory.
[%s]:[%s] - %s - sys_getMacFilterList failed with error code: %d, try sysintcli getMacFilterList from command line.
[%s]:[%s] - %s - Connected device count is %d
[%s]:[%s] - %s - sys_getConnectedDeviceList returned count: %d to allocate suffient memory.
DeviceStatus
DeviceFilterEnabled
": false
[%s]:[%s] - %s -sys_getConnectedDeviceList failed with error code: %d, try sysintcli getConnectedDeviceList from command line.
[%s]:[%s] - %s - sys_getConnectedDeviceList failed with error code: %d, try sysintcli getConnectedDeviceList from command line.
[%s]:[%s] - device is false mac[%s]
[%s]:[%s] - device is true mac[%s]
[%s]:[%s] -  %s - sys_getAllDevicesList failed with error code: %d, try sysintcli getAllDevicesList from command line.
[%s]:[%s] - %s - sys_getAllDevicesList failed with error code: %d, try sysintcli getAllDevicesList from command line.
firmware
sys_getSystemVersion
modem_version
device_version
cute_version
hardware
model_name
model_number
sys_getDeviceModelName
[%s]:[%s] - %s -Interface %s mac is: %.2x:%.2x:%.2x:%.2x:%.2x:%.2x
%.2x:%.2x:%.2x:%.2x:%.2x:%.2x
[%s]:[%s] - %s:sys_getCurrentEthernetMACAddress failed,returned %d.Try sysintcli getEthernetMACAddress from command line
sys_getHardwareInfo
features_supported
usb_tethering
[%s]:[%s] - %s-getUSBTetheringCarrierEnable failed returned%d.Try sysintcli from command line
wifi_access_point
wifi_dual_ssid
[%s]:[%s] - %s -getWiFiGuestCarrierEnabled failed,returned %d.Try sysintcli from command line
powersave
[%s]:[%s] - %s -getPowerSaveCarrierEnabled,failed,returned %d.Try sysintcli from command line
sms_mobile_terminated
sms_mobile_originated
parental_control
ethernet
accelerometer
battery_pack
usb_serial
ip_passthrough
deviceui
file_sharing
bluetooth
location_survey
multi_sim
device_agent
supported_commands
RUN_OOB_ACTION
sys_getRemoteOOBCarrierEnabled
languages_supported
[%s]:[%s] - %s - webui_get_supported_languages has returned %d, insufficient buffer.
[%s]:[%s] - %s - Languages supported are - language_info[%d].label:%s language_info[%d].locale:%s %s
[%s]:[%s] - %s - webui_get_supported_languages failed, returned error code %d, try webui_cli get_supported_languages from command line
ui_app_language_english_text
/opt/nvtl/data/config_module/
mkdir -p %s
/opt/nvtl/data/branding/etc/config_module/config.xml
/opt/nvtl/etc/config_module/config.xml
/opt/nvtl/data/branding/etc/config_module/basic_settings.xml
/opt/nvtl/etc/config_module/basic_settings.xml
/opt/nvtl/data/branding/etc/config_module/monitoring_settings.xml
/opt/nvtl/etc/config_module/monitoring_settings.xml
/opt/nvtl/data/branding/etc/config_module/gpio_settings.xml
/opt/nvtl/etc/config_module/gpio_settings.xml
/opt/nvtl/data/branding/etc/config_module/events_settings.xml
/opt/nvtl/etc/config_module/events_settings.xml
/opt/nvtl/data/branding/etc/config_module/golden_record.xml
/opt/nvtl/etc/config_module/golden_record.xml
[%s]:[%s] - %s - g_active_config_instance is assigned
"imei": "
", "timestamp": "
DeviceInfoCheckInResponse
[%s]:[%s] - %s - Enabled reqObjs GetDeviceInfoCheckinResponse
DeviceStatsCheckInResponse
[%s]:[%s] - %s - Enabled reqObjs GetDeviceStatsCheckinResponse
GpsInfoCheckInResponse
[%s]:[%s] - %s - Enabled reqObjs GetGpsInfoCheckinResponse
GpioInfoCheckInResponse
[%s]:[%s] - %s - Enabled reqObjs GetGPIOInfoCheckinResponse
EcompassInfoCheckInResponse
[%s]:[%s] - %s - Enabled reqObjs GetECompassInfoCheckinResponse
[%s]:[%s] - %s - vector is empty 
"events" : {
[%s]:[%s] - requested object is %s
[%s]:[%s] - childName is %s
[%s]:[%s] - %s - Response[%s]
sys_getPortForwardingApplicationList
[%s]:[%s] -  %s - sys_getPortForwardingApplicationList returned %d, count:[%d]
PortForwardingCustomApplications
PortForwardingEnabled
PortForwardingDNS
PortForwardingDNSIpAddress
PortForwardingFTP
PortForwardingFTPIpAddress
PortForwardingHTTP
PortForwardingHTTPIpAddress
PortForwardingNNTP
PortForwardingNNTPIpAddress
PortForwardingPOP3
PortForwardingPOP3IpAddress
PortForwardingSMTP
PortForwardingSMTPIpAddress
PortForwardingSNMP
PortForwardingSNMPIpAddress
PortForwardingTelnet
PortForwardingTelnetIpAddress
PortForwardingTFTP
PortForwardingTFTPIpAddress
AppIpAddress
AppPortType
Translate
[%s]:[%s] - %s Memory allocation Error!
[%s]:[%s] - %s -token [%s]
[%s]:[%s] - %s - Type[%d]
[%s]:[%s] - %s - response[%s] 
"Config" : {
Initializing
Searching
Connecting
Disconnecting
Activation in progress
No Service
Unactivated
Account restricted (PCO 2)
Account restricted (PCO 2) Disconnected
Account out of credit (PCO 3)
Account not active (PCO 5)
CDMA 1XRTT
EVDO REV0
EVDO REVA
HSPA PLUS DC
EVDO REVB
EVDO EHRPD
Automatic
CDMA AUTO
LTE ONLY
1XRTT ONLY
EVDO ONLY
No MNS scan in progress
MNS scan in progress
MNS scan complete
Available
Forbidden
3G HSDPA
3G HSUPA
3G WCDMA
WPA2 PSK
WPA2 MIX
Not Supported
Not Found
Unlocked
PIN Locked
PUK Locked
SIM Error
SIM Restricted
SIM Locked
Activation Started
Activation Failed
Activated
Not Activated
AutolockOn
AutolockOff
CarrierDisabled
SdNotMounted
PrivacyAgreementNotAccepted
Disabled
critical
transient
AirplaneModeOn
AirplaneModeOff
LowBatteryOff
connected
disabled
DateFormatUSA
DateFormatEuropeDot
DateFormatEurope
DateFormatISO8601Order
TimeFormat12Hr
TimeFormat24Hr
Fahrenheit
ChargeOnly
Domestic
International
Downlink
UplinkDownlink
HomeTheater
GameSystem
E-Reader
MusicPlayer
Deactivated
ChargingSourceNone
ChargingSourceUSB
ChargingSourceAC
4G/3G/2G
UpdateNotAvailable
UpdateAvailable
UpdateDownloading
Mandatory
Optional
Notpresent
/usr/share/locale
/etc/profile
/opt/nvtl/
/opt/nvtl/bin/
/opt/nvtl/etc/
/opt/nvtl/data/
_log_config.cfg
/sysconf/
ui_def_config.xml
ui_config.xml
acl_config.xml
restore_ace_defaults
webui_site_config.json
app_config.json
menu_layout.json
app.tmpl
/var/log/debug-logs.tgz
storelogs.sh
model_string.txt
gpsstatus
uinative
websupport
uisupport
<absent>
mifisess
gBaseAssetsPath
gHtmlLang
gLangDirection
gHttpStatusCode
gHttpStatusErrorMsg
gCssList
gSecureToken
gIsLoggedIn
gMenuLayout
gPostSuccess
gSiteTitle
gModelName
gHelpURL
gProductName
gProductNumber
gRedirectUrl
gIsSMSEnabled
gIsAdminSettingsEnabled
gIsDefaultPassword
gIsPromptChangePassword
gIsSMSLOCKED
gIsDeviceAgent
gIsMultiSimSupported
[%s]:[%s] - %s - ProcessRequest[%s]
[%s]:[%s] - Failed to parse JSON
Failed to parse JSON request.
[%s]:[%s] - Object Validation failed ret %d
[%s]:[%s] - %s - Process Request Error Message[%s]
[%s]:[%s] - successfully set the new wifi parameters
setManualDNSSettings
[%s]:[%s] - %s : %d ManualDNS is disabled: %d
setManualDNSEnabled
setWiFiMaxClients
setGPSEnabled
setNMEAOverWiFiEnabled
setGPSStartupState
setNMEAOverWiFiSettings
setIPv6TransparentModeEnabled
setVPNPassthroughEnabled
setDMZSettings
sys_setICMPResponseEnabledStatus
setDMZEnabled
setMacFilterWhiteListEnabled
clearReservedIPList
setLANSettings
setIPv6Enabled
[%s]:[%s] - mSaveLogSettings failed and returned: [%d] log_life_time[%d]
webui_set_log_settings
setMacFilterList
[%s]:[%s] - Error in webui_set_login_settings, returned : [%d]
[%s]:[%s] - Error in webui_set_advanced_settings, returned : [%d]
[%s]:[%s] - Failed devui set admin password enabled and returned: [%d]
setPortFilteringEnabled
setPortFilteringApplicationList
setPortForwardingEnabled
setPortForwardingApplicationList
setCellularDataEnabled
webui_set_automatic_network_selection
[%s]:[%s] -  webui_set_automatic_network_selection failed and returned: [%d]
setRoamingEnabled
setInternationalRoamingEnabled
sys_simSetSwitchMode
[%s]:[%s] - %s - Active Modem profile index: %d
sys_setModemProfile
setModemProfile for profile
[%s]:[%s] - %s-sys_getModemProfile failed,returned errorcode %d.Try sysintcli getModemProfile command line
sys_setCustomApnToDatabaseUsingIMSI
[%s]:[%s] - mSIMSwitchRules-signal_quality[%d]
[%s]:[%s] - mSIMSwitchRules-data_usage[%d]
[%s]:[%s] - mSIMSwitchRules[%d] slot num [%d]
sys_setSIMAutoAlgoConfigs : set SIM Auto algorithm configurations failed.
sys_setSIMPriorityConfigs : set SIM Priority configurations failed.
sys_setSIMSigQltyConfigs : set SIM Signal quality configurations failed.
sys_setDHCPReservedAddrList : set Reserved IP List failed.
SetMiFisharingSettings : set File sharing failed.
sys_setAutoConnectVpnEnabled : set VPN auto connect failed.
SetVpnSettings : set VPN settings failed.
sys_setIPPassthroughEnabled : set Ippt enable failed.
sys_setIPPassthroughSettings : set Ippt settings failed.
sys_setGPSRemoteEnabled : set GPS Remote enable failed.
sys_setGPSDeviceId : set GPS Remote GlobalDeviceID failed.
[%s]:[%s] - %s - At S1
[%s]:[%s] - %s - sys_getGPSRemoteNMEA done
[%s]:[%s] - %s - IF1
192.168.1.100
[%s]:[%s] - %s - deleted the server - [%d] 
[%s]:[%s] - %s - sys_setGPSRemoteNMEA failed with error code: %d for server-[%d], try sysintcli setGPSRemoteNMEA from command line.
sys_setGPSRemoteNMEA
sys_setGPSRemoteNMEA : set GPS Remote settings failed.
[%s]:[%s] - %s - gul Set from server input json only success
sys_setGPSLocalNMEA: set local GPS settings failed
sys_setGpioPin1Enable : GPIO Pin1 Set enabled failed
sys_setIgnitionEnabled : GPIO Pin1 IgnitionEnabled set failed.
sys_setIgnitionShutdown : GPIO Ignition set failed
[%s]:[%s] - %s- setIgnitionBatteryTimeout : faild timeout = %d
sys_setIgnitionBatteryTimeout : GPIO Pin1 Ingition timout set failed.
[%s]:[%s] - %s- setIgnitionVoltage : faild voltage = %d
sys_setIgnitionVoltage : GPIO Pin1 Voltage set failed.
sys_setGPIODirection :GPIO Pin1 Direction set failed.
sys_setGpioPin1CustomSettings :GPIO Pin1 Custom settings set failed.
[%s]:[%s] - %s- setGPIOValue : the GPIO Pin1 Current Value set has failed for the first time error return=%d
sys_setGPIOValue :GPIO Cureent state set failed.
sys_setGpioPin2Enable :GPIO Pin2 IO set failed.
sys_setGPIODirection :GPIO Pin2 Diection set failed.
sys_setGpioPin2CustomSettings :GPIO Pin2 Custom settings set failed.
[%s]:[%s] - %s- setGPIOValue : the GPIO Pin2 Current Value set has failed for the first time error return=%d
sys_setGPIOValue :GPIO Pin2 Cureent Value set failed.
sys_setAccelerometerSettings : set Accelerometer Settings failed.
sys_setAccelerometerEnabled : set Accelerometer Enabled failed.
sys_setMotionDetectionSettings : set Accelerometer Settings motion detection failed.
sys_setDriverBehaviorSettings : setDriver Behavior Settings for BrakingList failed.
sys_setDriverBehaviorSettings : setDriver Behavior Settings AccelerationList failed.
sys_setDriverBehaviorSettings : setDriver Behavior Settings RightturnList failed.
sys_setDriverBehaviorSettings : setDriver Behavior Settings LeftturnList failed.
sys_setDriverBehaviorSettings : setDriver Behavior Settings VerticalList failed.
sys_setDriverBehaviorSettings : setDriver Behavior Settings VagnitudeList failed.
sys_setUSBSerialEnabled : set USB Serial Enabled failed.
sys_setUSBSerialSettings : set USB Serial Settings failed.
setUSBSerialThresholdSettings : set USB Serial Threshold Settings failed.
sys_setBluetoothEnabled : set Bluetooth enabled failed.
/opt/nvtl/data/config_module/config_deviceagent_turnoff_cookie
touch %s
insg_mqtt_set_deviceagent_enabled: set device agent enabled failed
insg_mqtt_set_checkin_interval: set device agent checkin interval failed
insg_mqtt_set_ping_interval: set device agent ping interval/heartbeat time failed
[%s]:[%s] -  webui_set_software_update_settings failed and returned: [%d]
sys_setEnabledRadioTechnologies : Network Technology set failed
sys_setNR5GDisableMode : 5G Network Mode set failed
sys_setWanMonitorSettings : set Wan Settings failed.
sys_setWanAutoSwitch : set Wan Settings failed.
sys_setWanMonitorSettings : set Wan Failback Settings failed.
[%s]:[%s] - %s - Recieved Command [%s], Parsing Return Status[%d]
[%s]:[%s] - %s- Entered imei is [%s], command_id[%d], command[%s], args[%s]
{"imei":"
","cmdId":
,"cmd":"
","cmdStatus":
"true","msgCode":"DEVICE_RESTARTED"}
[%s]:[%s] - %s - sys_rebootSystem failed. Try sysintcli rebootSystem from command line
"false","msgCode":"INTERNAL_ERROR"}
"true","msgCode":"FACTORY_RESET_INITIATED"}
[%s]:[%s] - %s - sys_restoreFactoryDefaults failed. Try sysintcli restoreFactoryDefaults from command line
GET_DEBUG_LOGS
%d%.2d%.2d%.2d%.2d%.2d
/tmp/%s-%s-Log.tar.gz
storelogs.sh %s
openssl smime -encrypt -binary -aes256 -in %s -out %s /opt/nvtl/etc/log_pub_cert.pem
"true","msgCode":"DEBUG_LOG_UPLOAD_DONE"}
[%s]:[%s] - %s - response is [%s], path is [%s]
FOTA_CHECK
[%s]:[%s] - %s - webui_check_for_update_initiated failed, returned error %d, try webui_cli check_for_update_initiated from command line.
"true","msgCode":"FOTA_CHECK_SUCCESS"}
[%s]:[%s] - %s - response is [%s]
GET_FOTA_STATUS
/opt/nvtl/data/config_module/config_fota_check_cookie
[%s]:[%s] - %s - fota check cookie exists
"true","msgCode":"RESP_SUCCESS", "data":{"state":"SOFTWARE_UPDATE_INSTALLATION_SUCCESS"}}
[%s]:[%s] - %s - nua failed while getting installation status by returning[%d]
[%s]:[%s] - %s - webui_get_software_installation_duration failed, returned error %d. Try webui_cli software_installation_duration from command line.
[%s]:[%s] - %s - software installation duration is [%d]
"true","msgCode":"RESP_SUCCESS", "data":{
"state":"SOFTWARE_UPDATE_NONE"
"state":"SOFTWARE_UPDATE_CHECK_IN_PROGRESS"
"state":"SOFTWARE_UPDATE_CONFIGURATION_UPDATED"
"state":"SOFTWARE_UPDATE_NOT_AVAILABLE"
"state":"SOFTWARE_UPDATE_AVAILABLE"
"downloadPercent":
,"state":"SOFTWARE_UPDATE_DOWNLOAD_PROGRESS"
"estimatedUpgradeTime":
,"state":"SOFTWARE_UPDATE_READY_TO_INSTALL"
,"state":"SOFTWARE_UPDATE_INSTALLATION_STARTED"
"state":"SOFTWARE_UPDATE_CANCELLED"
"state":"SOFTWARE_UPDATE_INSTALLATION_SUCCESS"
"updateError":"SOFTWARE_UPDATE_LOW_BATTERY_ERROR","state":"SOFTWARE_UPDATE_ERROR"
"updateError":"SOFTWARE_UPDATE_DOWNLOAD_FAILED_ERROR","state":"SOFTWARE_UPDATE_ERROR"
"updateError":"SOFTWARE_UPDATE_INSTALLATION_FAILED_ERROR","state":"SOFTWARE_UPDATE_ERROR"
"updateError":"SOFTWARE_UPDATE_CHECK_FAILED_ERROR","state":"SOFTWARE_UPDATE_ERROR"
"updateError":"SOFTWARE_UPDATE_ROAMING_ERROR","state":"SOFTWARE_UPDATE_ERROR"
"updateError":"SOFTWARE_UPDATE_NETWORK_COVERAGE_ERROR","state":"SOFTWARE_UPDATE_ERROR"
"updateError":"SOFTWARE_UPDATE_CHECK_FAILED_FAILSAFE_ERROR","state":"SOFTWARE_UPDATE_ERROR"
RESET_DATA_USAGE
%04d-%02d-%02dT%02d:%02d:%02d
[%s]:[%s] - %s - sys_deleteDataUsageInfo success to reset data plan presentDate[%s]
[%s]:[%s] - %s arguments %s
[%s]:[%s] - %s sim slot pos is string %d
basic_string::substr
[%s]:[%s] - %s sim slot name is string %s, substr[%s
[%s]:[%s] - %s sim slot name is %d
sys_getSimSlotInfo
[%s]:[%s] - %s sim slot imsi is %s
sys_deleteSimDataUsageInfo
[%s]:[%s] - %s - sys_deleteDataUsageInfo success to reset data plan
"true","msgCode":"RESP_SUCCESS"}
[%s]:[%s] - %s - sys_deleteDataUsageInfo failed with error code: %d, try sysintcli deleteDataUsageInfo from command line
DO_SOFT_WPS
[%s]:[%s] - %s - No active profile
[%s]:[%s] - %s This is what we received in mRequestedArgs.c_str() at configuration module.cc- %s
PUSH-BUTTON
[%s]:[%s] - %s: from configuration_agent.cc response being sent to device agent is %s
[%s]:[%s] - %s from configuration_agent.cc response being sent to device agent from else part is %s
DO_CARRIER_UNLOCK
[%s]:[%s] - %s - sys_simRemoveetworkLock(%s) success
[%s]:[%s] - %s - sys_simRemoveNetworkLock(%s) failed with error:%d
[%s]:[%s] - %s - In Remote_serial_port mRequestedArgs:[%s]
serialPort
cmdToPort
[%s]:[%s] - %s - In Remote_serial_port config:[%s]
[%s]:[%s] - %s - Restrating the USB Serial Process after enabling
killall usb_serial
[%s]:[%s] - %s - In Remote_serial_port Before system("usb_serial&")
usb_serial &
"false","msgCode":"RESP_FAIL","data": {"action": "start","reason":"No Device Found"}}
"true","msgCode":"RESP_SUCCESS","data": {"action": "start","cmdResp":"
 connected"}}
[%s]:[%s] - %s - Stoping the USB Serial Process
[%s]:[%s] - %s - In Remote_serial_port response:[%s]
GET_VPN_STATUS
"true","msgCode":"RESP_SUCCESS", "data":{"Connected":"true"}}
"true","msgCode":"RESP_SUCCESS", "data":{"Connected":"false"}}
[%s]:[%s] - %s - get IPSecVPN connection state tunnel status failed by returning[%d]
[%s]:[%s] - %s - get IPSecVPN connection to establish a tunnel name not found
"false","msgCode":"INVALID_KEY"}
[%s]:[%s] - %s - get IPSecVPN connection to establish a tunnel status failed by returning[%d]
VPN_CONNECT
[%s]:[%s] - %s - Updates are pushed to server - [%d] 
[%s]:[%s] - %s - Set IPSecVPN connection to establish a tunnel status failed by returning[%d]
VPN_DISCONNECT
[%s]:[%s] - %s - Set IPSecVPN disconnection to establish a tunnel status failed by returning[%d]
[%s]:[%s] - %s - get IPSecVPN disconnection to establish a tunnel name not found
[%s]:[%s] - %s - get IPSecVPN disconnection to establish a tunnel status failed by returning[%d]
[%s]:[%s] - %s - Response For Command[%s], Parsing Return Status[%d]
[%s]:[%s] - Invalid MANUAL_DNS_ENABLED parameter data type
Invalid Manual dns settings enabled parameter data type
[%s]:[%s] - Invalid MANUAL_DNS_ADDRESS1 parameter data type
Invalid Manual dns settings address1 parameter data type
[%s]:[%s] - Invalid MANUAL_DNS_ADDRESS2 parameter data type
Invalid Manual dns settings address2 parameter data type
[%s]:[%s] - %s - NO  ManualDNSSettings Object in the JSON data
[%s]:[%s] - Invalid IPV6_TRANSPARENT_MODE parameter data type
Invalid Firewall settings IPV6 transparent mode parameter data type
[%s]:[%s] - Invalid VPN_PASSTHROUGH_ENABLED parameter data type
Invalid Firewall settings VPN passthrough enabled parameter data type
[%s]:[%s] - Invalid DMZ_ENABLED parameter data type
Invalid Firewall settings DMZ enabled parameter data type
[%s]:[%s] - Invalid DMZ_IP_ADDRESS parameter data type
Invalid Firewall settings DMZ IP address parameter data type
[%s]:[%s] - Invalid ICMP_ENABLED_STATUS parameter data type
Invalid Firewall settings ICMP Enabled Status parameter data type
[%s]:[%s] - %s - NO FirewallSettings Object in the JSON data
[%s]:[%s] - %s - input variables are pointing NULL values
[%s]:[%s] - %s-MAC available is available in present config update list and not a filter enabled address
[%s]:[%s] - %s-MAC available is available in present config update list and already filter enabled address
[%s]:[%s] - Invalid MAC_FILTER_ENABLED parameter data type
Invalid MAC filter object enabled parameter data type
[%s]:[%s] - %s:v->u.array.len %d
[%s]:[%s] - Invalid MAC_DEVICE_LIST MACADDRESS parameter data type
Invalid Mac device list object mac adress parameter data type
[%s]:[%s] - %s:%d Invalid Mac device list device name:(%s) 
Invalid Mac device list device name %s should be less than %d
[%s]:[%s] - Invalid MAC_DEVICE_LIST DEVICENAME parameter data type
Invalid Mac device list object mac name parameter data type
[%s]:[%s] - Invalid MAC_DEVICE_LIST DEVICETYPE parameter data type
Invalid Mac device list object mac type parameter data type
[%s]:[%s] - Invalid MAC_DEVICE_LIST Filter Enabled parameter data type
Invalid Mac device list object mac Filter Enabled parameter data type
[%s]:[%s] - %s - Modifing MAC[%s] device name only as already available in current configuration device list
[%s]:[%s] - %s - Adding MAC[%s] to current configuration device list
[%s]:[%s] - Invalid MAC FilterSettings device list object not having MAC adress
Invalid MAC FilterSettings device list object not having MAC adress
[%s]:[%s] - %s - List Devices count exceeded %d where maximum limit is %d
Invalid MAC FilterSettings device list object mac adress count is exceeded
[%s]:[%s] - %s - NO MacFilterSettings Object in the JSON data
[%s]:[%s] - Invalid LAN_SETTINGS_DATA_TYPE_ERROR parameter data type
Invalid LAN settings Object ipv4 passthrough enabled parameter data type
[%s]:[%s] - Invalid LAN_SETTINGS_DATA_TYPE_ERROR %s
Invalid LAN IPPT settings Object ippt interface type parameter value
[%s]:[%s] - Invalid LAN_SETTINGS_DATA_TYPE_ERROR interface parameter data type
Invalid LAN IPPT Settings Object ippt interface parameter data type
[%s]:[%s] - Invalid LAN IPv4 address parameter data type
Invalid LAN Settings object IPv4 address parameter data type
[%s]:[%s] - Invalid LAN Subnetmask parameter data type
Invalid LAN Settings object Sub net mask parameter data type
[%s]:[%s] - Invalid LAN_DHCP_EENABLED parameter data type
Invalid LAN Settings object DHCP enabled parameter data type
[%s]:[%s] - Invalid LAN DHCPADDRESS_START_RANGE parameter data type
Invalid LAN Settings object DHCP address start range parameter data type
[%s]:[%s] - Invalid LAN DHCPADDRESS_END_RANGE parameter data type
Invalid LAN Settings object DHCP address end range parameter data type
[%s]:[%s] - Invalid LAN DHCP_LEASE_TIME parameter data type
Invalid LAN Settings object DHCP lease time parameter data type
[%s]:[%s] - Invalid LAN IPV6_ENABLED parameter data type
Invalid LAN Settings object IPv6 enabled parameter data type
[%s]:[%s] - %s - NO LANSettings Object in the JSON data
[%s]:[%s] - Invalid GPS_ENABLED parameter data type
Invalid GPS Settings object enabled parameter data type
[%s]:[%s] - Invalid GPS NMEA_OVER_WIFI_ENABLED parameter data type
Invalid GPS Settings object nmea over wifi enabled parameter data type
[%s]:[%s] - Invalid GPS SHUTDOWN parameter data type
Invalid GPS Settings object shutdown parameter data type
[%s]:[%s] - Invalid GPS NMEA_OVER_WIFI_PORTNUMBER %d
Invalid GPS Settings object nmea over wifi port number value
[%s]:[%s] - Invalid GPS NMEA_OVER_WIFI_PORTNUMBER parameter data type
Invalid GPS Settings object nmea over wifi port number parameter data type
[%s]:[%s] - %s - NO  GPSSettings Object in the JSON data
NMEAOptions
[%s]:[%s] - Invalid GPS Remote nmeaGga parameter data type
Invalid GPS Remote nmeaGga parameter data type
[%s]:[%s] - Invalid GPS Remote nmeaGll parameter data type
Invalid GPS Remote nmeaGll parameter data type
[%s]:[%s] - Invalid GPS Remote nmeaGsa parameter data type
Invalid GPS Remote nmeaGsa parameter data type
[%s]:[%s] - Invalid GPS Remote nmeaGsv parameter data type
Invalid GPS Remote nmeaGsv parameter data type
[%s]:[%s] - Invalid GPS Remote nmeaRmc parameter data type
Invalid GPS Remote nmeaRmc parameter data type
[%s]:[%s] - Invalid GPS Remote nmeaVtg parameter data type
Invalid GPS Remote nmeaVtg parameter data type
[%s]:[%s] - Invalid GPS Remote nmeaZda parameter data type
Invalid GPS Remote nmeaZda parameter data type
[%s]:[%s] - Invalid GPS Remote nmeaId parameter data type
Invalid GPS Remote nmeaId parameter data type
[%s]:[%s] - Invalid GPS Remote NMEAOptions parameter as some options are missing
Invalid GPS Remote NMEAOptions parameter as some options are missing
[%s]:[%s] - Invalid GPS Remote NMEAOptions parameter
Invalid GPS Remote NMEAOptions parameter
TAIPOptions
[%s]:[%s] - Invalid GPS Remote taipAl parameter data type
Invalid GPS Remote taipAl parameter data type
[%s]:[%s] - Invalid GPS Remote taipCp parameter data type
Invalid GPS Remote taipCp parameter data type
[%s]:[%s] - Invalid GPS Remote taipLn parameter data type
Invalid GPS Remote taipLn parameter data type
[%s]:[%s] - Invalid GPS Remote taipPv parameter data type
Invalid GPS Remote taipPv parameter data type
[%s]:[%s] - Invalid GPS Remote taipTm parameter data type
Invalid GPS Remote taipTm parameter data type
[%s]:[%s] - Invalid GPS Remote taipId parameter data type
Invalid GPS Remote taipId parameter data type
[%s]:[%s] - Invalid GPS Remote TAIPOptions parameter as some options are missing
Invalid GPS Remote TAIPOptions parameter as some options are missing
[%s]:[%s] - Invalid GPS Remote TAIPOptions parameter
Invalid GPS Remote TAIPOptions parameter
[%s]:[%s] - %s - remoteGPSConfigsNmea Free Memory successfully
[%s]:[%s] - %s - remoteGPSConfigsTaip Free Memory successfully
[%s]:[%s] - Invalid GPS Remote server index
Invalid GPS Remote server index
[%s]:[%s] - Invalid GPS Remote server index in entry: %d
Invalid GPS Remote server index in entry: %d
[%s]:[%s] - Invalid GPSRemote Server Name length parameter
Invalid GPSRemote Server Name length parameter value
[%s]:[%s] - Invalid GPS Remote Server Name in entry: %d
Invalid GPS Remote Server Name in entry: %d
[%s]:[%s] - Invalid GPS Remote Reporting parameter data type
Invalid GPS Remote Reporting parameter data type
[%s]:[%s] - Invalid GPS Remote StoreAndForward parameter data type
Invalid GPS Remote StoreAndForward parameter data type
[%s]:[%s] - Invalid GPS Remote Server Address in entry: %d
Invalid GPS Remote Server Address in entry: %d
[%s]:[%s] - Invalid GPS Remote Port Number in entry: %d
Invalid GPS Remote Port Number in entry: %d
[%s]:[%s] - Invalid GPS protocol in entry: %d
Invalid GPS Remote protocol in entry: %d
[%s]:[%s] - Invalid GPS Remote Network Protocol in entry: %d
Invalid GPS Remote Network Protocol in entry: %d
[%s]:[%s] - Invalid GPS Remote Reporting Mode in entry: %d
Invalid GPS Remote Reporting Mode in entry: %d
[%s]:[%s] - Invalid GPS Remote ReportingOptionsNmea in entry: %d
Invalid GPS Remote ReportingOptionsNmea in entry: %d
[%s]:[%s] - Invalid GPS Remote ReportingTimeIntervalEnabled parameter data type
Invalid GPS Remote ReportingTimeIntervalEnabled parameter data type
[%s]:[%s] - Invalid GPS Remote ReportingTimeInterval parameter in entry: %d
Invalid GPS Remote ReportingTimeInterval parameter in entry: %d
[%s]:[%s] - Invalid GPS Remote ReportingDistanceIntervalEnabled parameter data type
Invalid GPS Remote ReportingDistanceIntervalEnabled parameter data type
[%s]:[%s] - Invalid GPS Remote ReportingDistance parameter in entry: %d
Invalid GPS Remote ReportingDistance parameter in entry: %d
[%s]:[%s] - Invalid GPS Remote ReportStationayEnabled parameter data type
Invalid GPS Remote ReportStationayEnabled parameter data type
[%s]:[%s] - Invalid GPS Remote ReportStationary parameter in entry: %d
Invalid GPS Remote ReportStationary parameter in entry: %d
[%s]:[%s] - Invalid GPS Remote Enabled parameter data type
Invalid GPS Remote Enabled parameter data type
[%s]:[%s] - Invalid GPS Remote GlobalDeviceID parameter data type
Invalid GPS Remote GlobalDeviceID parameter data type
[%s]:[%s] - Invalid GPS Remote Servers parameter data type
Invalid GPS Remote Servers parameter data type
[%s]:[%s] - %s - NO GPS Remote Object in the JSON data
[%s]:[%s] - Invalid LOGS_ENABLED parameter data type
Invalid LOG Settings object enabled parameter data type
[%s]:[%s] - Invalid LogsSettings->LogsDuration(%d)
Invalid LOG Settings object logs duration parameter value
[%s]:[%s] - Invalid LOGS LOGS_DURATION parameter data type
Invalid LOG Settings object logs duration parameter data type
[%s]:[%s] - %s - END logsflag[%d]
[%s]:[%s] - %s - NO Logs Object in the JSON data
[%s]:[%s] - Invalid Blocked Devices MACADDRESS parameter data type
Invalid Blocked list devices object mac adress parameter data type
Invalid Blocked list devices object mac adress count is exceeded
[%s]:[%s] - %s:v->u.array.len Empty
[%s]:[%s] - %s - NO BlockedDevices Object in the JSON data
[%s]:[%s] - Invalid WHITE_LIST_DEVICE MACADDRESS parameter data type
Invalid White list devices object mac adress parameter data type
[%s]:[%s] - WhiteListDevices count exceeded %d
Invalid White list devices object mac adress count is exceeded
[%s]:[%s] - %s - NO WhiteListedDevices Object in the JSON data
[%s]:[%s] - Invalid WIFI SSID parameter data
Invalid WIFI Primary Object SSID parameter value
[%s]:[%s] - Invalid WIFI SSID parameter data type
Invalid WIFI Primary Object SSID parameter data type
[%s]:[%s] - Invalid WIFI BROADCAST_ENABLED parameter data type
Invalid WIFI Primary Object broadcast enabled parameter data type
WPA2 Personal PSK (AES)
WPA/WPA2 Mixed Mode
WPA3/WPA2 Transition
Open Enhanced
[%s]:[%s] - Invalid WIFI Security Mode parameter
Invalid WIFI Primary Object security mode parameter value
[%s]:[%s] - Invalid WIFI SECURITY_MODE parameter data type
Invalid WIFI Primary Object security mode parameter data type
[%s]:[%s] - Invalid WIFI Security Key parameter
Invalid WIFI Primary Object key parameter value
[%s]:[%s] - Invalid WIFI_KEY parameter data type
Invalid WIFI Primary Object key parameter data type
[%s]:[%s] - Invalid WIFI NAME_ONDISPLAY parameter data type
Invalid WIFI Primary Object name on display parameter data type
[%s]:[%s] - Invalid WIFI PASSWORD_ONDISPLAY parameter data type
Invalid WIFI Primary Object password on display parameter data type
[%s]:[%s] - Invalid WIFI_WPS_ENABLED parameter data type
Invalid WIFI Primary Object WPS enabled parameter data type
[%s]:[%s] - Invalid WIFI_PRIVACY_SEPARATION_ENABLED parameter data type
Invalid WIFI Primary Object Privacy separation enabled parameter data type
[%s]:[%s] - %s - NO WiFiNetworkSettings Object in the JSON data
[%s]:[%s] - Invalid Guest WIFI SSID parameter data
Invalid WIFI Guest Object SSID parameter value
[%s]:[%s] - Invalid GUEST WIFI SSID parameter data type
Invalid WIFI Guest Object SSID parameter data type
[%s]:[%s] - Invalid Guest WIFI BROADCAST_ENABLED parameter data type
Invalid WIFI Guest Object broadcast enabled parameter data type
[%s]:[%s] - Invalid Guest WIFI Security Mode parameter
Invalid WIFI Guest Object Security Mode parameter value
[%s]:[%s] - Invalid GUEST WIFI SECURITY_MODE parameter data type
Invalid WIFI Guest Object Security Mode parameter data type
Invalid WIFI Guest Object key parameter value
[%s]:[%s] - Invalid GUEST WIFI KEY parameter data type
Invalid WIFI Guest Object Key parameter data type
[%s]:[%s] - Invalid WIFI_GUEST_NETWORK_SETTINGS_NAME_ONDISPLAY parameter data type
Invalid WIFI Guest Object name on display parameter data type
[%s]:[%s] - Invalid WIFI_GUEST_NETWORK_SETTINGS_PASSWORD_ONDISPLAY parameter data type
Invalid WIFI Guest Object password on display parameter data type
[%s]:[%s] - Invalid WIFI_GUEST_NETWORK_SETTINGS_WPS_ENABLED parameter data type
Invalid WIFI Guest Object WPS enabled parameter data type
[%s]:[%s] - Invalid WIFI_GUEST_NETWORK_SETTINGS_PRIVACY_SEPARATION_ENABLED parameter data type
Invalid WIFI Guest Object Privacy seperation enabled parameter data type
[%s]:[%s] - %s - NO WiFiGuestNetworkSettings Object in the JSON data
[%s]:[%s] - Invalid WIFI_ADVANCED ENABLED parameter data type
Invalid WIFI Advanced Object WiFi enabled parameter data type
[%s]:[%s] - Invalid WIFI_ADVANCED ALLOW CHANGES ON TOUCH SCREEN parameter data type
Invalid WIFI Advanced Object WiFi Allow Changes On Touch Screen parameter data type
Primary network
Guest network
[%s]:[%s] - Invalid WIFI_SETTINGS_24GHZ_BAND parameter
Invalid WIFI Advanced Object WiFi 2.4GHz parameter value
[%s]:[%s] - Invalid WIFI_SETTINGS_ACTIVE_PROFILE parameter data type
Invalid WIFI Advanced Object WiFi 2.4GHz parameter data type
[%s]:[%s] - Invalid WIFI_SETTINGS_5GHZ_BAND parameter
Invalid WIFI Advanced Object WiFi 5GHz parameter value
Invalid WIFI Advanced Object WiFi 5GHz parameter data type
[%s]:[%s] - Invalid WIFI_ADVANCED MAX_CLIENTS parameter data type
Invalid WIFI Advanced Object max clients parameter data type
802.11bgn
802.11bgn/ax
[%s]:[%s] - Invalid WiFi80211Mode24GHz:(%s)
Invalid WIFI Advanced Object WiFi 2.4GHz 802.11 Mode parameter value
[%s]:[%s] - Invalid WIFI_ADVANCED 80211MODE_24GHZ parameter data type
Invalid WIFI Advanced Object WiFi 2.4GHz 802.11 Mode parameter data type
[%s]:[%s] - Invalid WiFiChannel24Ghz:(%d)
Invalid WIFI Advanced Object 2.4GHz channel parameter value
[%s]:[%s] - Invalid WIFI_ADVANCED CHANNEL_24GHZ parameter data type
Invalid WIFI Advanced Object 2.4GHz channel parameter data type
802.11ac
802.11acn
802.11acn/ax
[%s]:[%s] - Invalid WiFi80211Mode5GHz:(%s)
Invalid WIFI Advanced Object WiFi 5GHz 802.11 Mode parameter value
[%s]:[%s] - Invalid WIFI_ADVANCED 80211MODE_5GHZ parameter data type
Invalid WIFI Advanced Object WiFi 5GHz 802.11 Mode parameter data type
[%s]:[%s] - Invalid WiFiChannel5Ghz:(%d)
Invalid WIFI Advanced Object 5GHz channel parameter value
[%s]:[%s] - Invalid WIFI_ADVANCED CHANNEL_5GHZ parameter data type
Invalid WIFI Advanced Object 5GHz channel parameter data type
[%s]:[%s] - Invalid WiFiBandwidth5Ghz:(%d)
Invalid WIFI Advanced Object 5GHz bandwidth parameter value
[%s]:[%s] - Invalid WIFI_ADVANCED BANDWIDTH_5GHZ parameter data type
Invalid WIFI Advanced Object 5GHz bandwidth parameter data type
[%s]:[%s] - %s - NO WiFiAdvancedSettings Object in the JSON data
[%s]:[%s] - Invalid ADMIN_PASSWORD parameter data type
Invalid Admin Password Settings Object password parameter data type
[%s]:[%s] - Invalid ADMIN_PASSWORD ON_DISPLAY parameter data type
Invalid Admin Password Settings Object password on display parameter data type
What is your date of birth? (mm/dd/yyyy)
What is your mother's maiden name?
What is the name of the street you grew up on?
[%s]:[%s] - Invalid ADMIN_PASSWORD_SECURITY_QUESTION %s
Invalid Admin Password Settings Object security question parameter value
[%s]:[%s] - Invalid ADMIN_PASSWORD SECURITY_QUESTION parameter data type
Invalid Admin Password Settings Object security question parameter data type
[%s]:[%s] - Invalid ADMIN_PASSWORD_SECURITY_ANSWER %s
Invalid Admin Password Settings Object security answer parameter value
[%s]:[%s] - Invalid ADMIN_PASSWORD SECURITY_ANSWER parameter data type
Invalid Admin Password Settings Object security answer parameter data type
AdminPasswordTurnONPasswordProtection
[%s]:[%s] - Invalid ADMIN_PASSWORD TURN ON PASSWORD PROTECTION parameter data type
Invalid Admin Password Settings Object turn on password protection parameter data type
AdminPasswordOnGPS
[%s]:[%s] - Invalid ADMIN_PASSWORD ON GPS parameter data type
Invalid Admin Password Settings Object on GPS parameter data type
AdminPasswordOnNetworkSettings
[%s]:[%s] - Invalid ADMIN_PASSWORD ON NETWORK SETTINGS parameter data type
Invalid Admin Password Settings Object on network settings parameter data type
[%s]:[%s] - %s - NO AdminPasswordSettings Object in the JSON data
[%s]:[%s] - %s:node->u.array.len %d
[%s]:[%s] - Invalid Port filter Object custom application name:(%s) length should be less than %d
Invalid Port filter Object custom application name %s should be less than %d
[%s]:[%s] - Invalid PORT_FILTERING APP_NAME parameter data type
Invalid Port filter Object custom application name parameter data type
[%s]:[%s] - Invalid PORT_FILTERING APP_ENABLED parameter data type
Invalid Port filter Object custom application enabled parameter data type
[%s]:[%s] - Invalid PORT_FILTERING APP_START_PORT_NUM parameter data type
Invalid Port filter Object custom application start port number parameter data type
[%s]:[%s] - Invalid PORT_FILTERING APP_END_PORT_NUM parameter data type
Invalid Port filter Object custom application end port number parameter data type
[%s]:[%s] - Invalid PORT_FILTERING_APP_TYPE %s
Invalid Port filter Object custom application type parameter value
[%s]:[%s] - Invalid PORT_FILTERING APP_TYPE parameter data type
Invalid Port filter Object custom application type parameter data type
[%s]:[%s] - %s:node->u.array.len Empty *count= %d
[%s]:[%s] - Invalid PORT_FILTER Custom Apps count=%d
Invalid Port filter Object custom applications count is exceeded
[%s]:[%s] - Invalid Port forward Object custom application name:(%s) length should be less than %d
Invalid Port forward Object custom application name %s should be less than %d
[%s]:[%s] - Invalid PORT_FORWARDING APP_NAME parameter data type
Invalid Port forward Object custom application name parameter data type
[%s]:[%s] - Invalid PORT_FORWARDING APP_ENABLED parameter data type
Invalid Port forward Object custom application enabled parameter data type
Range/Single
[%s]:[%s] - Invalid PORT_FORWARDING_APP_PORT_TYPE %s
Invalid Port forward Object custom application port type parameter value
[%s]:[%s] - Invalid PORT_FORWARDING APP_PORT_TYPE parameter data type
Invalid Port forward Object custom application port type parameter data type
[%s]:[%s] - Invalid PORT_FORWARDING APP_START_PORT parameter data type
Invalid Port forward Object custom application start port parameter data type
[%s]:[%s] - Invalid PORT_FORWARDING APP_END_PORT parameter data type
Invalid Port forward Object custom application end port parameter data type
[%s]:[%s] - Invalid PORT_FORWARDING_APP_TYPE %s
Invalid Port forward Object custom application type parameter value
[%s]:[%s] - Invalid PORT_FORWARDING APP_TYPE parameter data type
Invalid Port forward Object custom application type parameter data type
[%s]:[%s] - Invalid PORT_FORWARDING APP_IP_ADDRESS parameter data type
Invalid Port forward Object custom application IP address parameter data type
[%s]:[%s] - %s:node->u.array.len Empty *count=%d 
[%s]:[%s] - Invalid PORT_FORWARDING Custom Apps count=%d
Invalid Port forward Object. Custom application count is exceeded.
[%s]:[%s] - Invalid CARRIER_CELLULAR_DATA_ENABLED parameter data type
Invalid Network Settings Object cellular data enabled parameter data type
[%s]:[%s] - Invalid CARRIER_AUTO_NETWORK_SELECTION parameter data type
Invalid Network Settings Object automatic network selection enabled parameter data type
[%s]:[%s] - Invalid CARRIER_ROAMING_ENABLED parameter data type
Invalid Network Settings Object roaming enabled parameter data type
[%s]:[%s] - Invalid CARRIER_SETTINGS_SIM_CUSTOM_APN parameter data length
Invalid Carrier Settings Object custom apn parameter data length
[%s]:[%s] - Invalid CARRIER_SETTINGS_SIM_CUSTOM_APN parameter data type
Invalid Carrier Settings Object custom apn parameter data type
PAP or CHAP
[%s]:[%s] - Invalid CARRIER_SETTINGS_SIM_AUTHENTICATION parameter data
Invalid Carrier Settings Object sim authentication parameter data
[%s]:[%s] - Invalid CARRIER_SETTINGS_SIM_AUTHENTICATION parameter data type
Invalid Carrier Settings Object sim authentication parameter data type
[%s]:[%s] - Invalid CARRIER_SETTINGS_SIM_CUSTOM_APN username parameter data length
Invalid Carrier Settings Object custom apn username parameter data length
[%s]:[%s] - Invalid CARRIER_SETTINGS_SIM_USERNAME parameter data type
Invalid Carrier Settings Object sim username parameter data type
[%s]:[%s] - Invalid CARRIER_SETTINGS_SIM_CUSTOM_APN password parameter data length
Invalid Carrier Settings Object custom apn password parameter data length
[%s]:[%s] - Invalid CARRIER_SETTINGS_SIM_PASSWORD parameter data type
Invalid Carrier Settings Object sim password parameter data type
[%s]:[%s] - Invalid CARRIER_SETTINGS_SIM_PDPTYPE parameter data type
Invalid Carrier Settings Object sim pdp type parameter data type
[%s]:[%s] - Invalid CARRIER_SETTINGS_NETWORK_TECHNOLOGY %d
Invalid Carrier Settings Object Network Technology  parameter data type
[%s]:[%s] - Invalid CARRIER_SETTINGS_NETWORK_TECHNOLOGY parameter data type
[%s]:[%s] - Invalid CARRIER_SETTINGS_5G_NETWORK_MODE parameter value
Invalid Carrier Settings Object 5G Network Mode parameter Value
[%s]:[%s] - Invalid CARRIER_SETTINGS_5G_NETWORK_MODE parameter data type
Invalid Carrier Settings Object 5G Network Mode parameter data type
[%s]:[%s] - %s - NO MobileNetwork Settings Object in the JSON data
[%s]:[%s] - Invalid PORT_FILTERING ENABLED parameter data type
Invalid Port filtering Object enabled parameter data type
Email (POP3, IMAP, SMTP)
[%s]:[%s] - Invalid PORT_FILTERING EMAIL parameter data type
Invalid Port filtering Object EMAIL parameter data type
[%s]:[%s] - Invalid PORT_FILTERING FTP parameter data type
Invalid Port filtering Object FTP parameter data type
[%s]:[%s] - Invalid PORT_FILTERING HTTP parameter data type
Invalid Port filtering Object HTTP parameter data type
[%s]:[%s] - Invalid PORT_FILTERING HTTPS parameter data type
Invalid Port filtering Object HTTPS parameter data type
[%s]:[%s] - Invalid PORT_FILTERING TELNET parameter data type
Invalid Port filtering Object TELNET parameter data type
[%s]:[%s] - %s: *count=%d 
[%s]:[%s] - %s - NO PortFiltering Settings Object in the JSON data
[%s]:[%s] - Invalid PORT_FORWARDING ENABLED parameter data type
Invalid Port forwarding Object enabled parameter data type
[%s]:[%s] - Invalid PORT_FORWARDING DNS parameter data type
Invalid Port forwarding Object DNS parameter data type
[%s]:[%s] - Invalid PORT_FORWARDING DNS_IPADDR parameter data type
Invalid Port forwarding Object DNS forward IP Address parameter data type
[%s]:[%s] - Invalid PORT_FORWARDING FTP parameter data type
Invalid Port forwarding Object FTP parameter data type
[%s]:[%s] - Invalid PORT_FORWARDING FTP_IPADDR parameter data type
Invalid Port forwarding Object FTP forward IP address parameter data type
[%s]:[%s] - Invalid PORT_FORWARDING HTTP parameter data type
Invalid Port forwarding Object HTTP parameter data type
[%s]:[%s] - Invalid PORT_FORWARDING HTTP_IPADDR parameter data type
Invalid Port forwarding Object HTTP forward IP address parameter data type
[%s]:[%s] - Invalid PORT_FORWARDING NNTP parameter data type
Invalid Port forwarding Object NNTP parameter data type
[%s]:[%s] - Invalid PORT_FORWARDING NNTP_IPADDR parameter data type
Invalid Port forwarding Object NNTP forward IP address parameter data type
[%s]:[%s] - Invalid PORT_FORWARDING POP3 parameter data type
Invalid Port forwarding Object POP3 parameter data type
[%s]:[%s] - Invalid PORT_FORWARDING POP3_IPADDR parameter data type
Invalid Port forwarding Object POP3 forward IP address parameter data type
Secure SMTP
Secure SMTP (SSMTP)
[%s]:[%s] - Invalid PORT_FORWARDING FORWARDING_SMTP parameter data type
Invalid Port forwarding Object SMTP parameter data type
[%s]:[%s] - Invalid PORT_FORWARDING SMTP_IPADDR parameter data type
Invalid Port forwarding Object SMTP forward IP address parameter data type
[%s]:[%s] - Invalid PORT_FORWARDING SNMP parameter data type
Invalid Port forwarding Object SNMP parameter data type
[%s]:[%s] - Invalid PORT_FORWARDING SNMP_IPADDR parameter data type
Invalid Port forwarding Object SNMP forward IP address parameter data type
[%s]:[%s] - Invalid PORT_FORWARDING TELNET parameter data type
Invalid Port forwarding Object TELNET parameter data type
[%s]:[%s] - Invalid PORT_FORWARDING TELNET_IPADDR parameter data type
Invalid Port forwarding Object TELNET forward IP address parameter data type
[%s]:[%s] - Invalid PORT_FORWARDING TFTP parameter data type
Invalid Port forwarding Object TFTP parameter data type
[%s]:[%s] - Invalid PORT_FORWARDING TFTP_IPADDR parameter data type
Invalid Port forwarding Object TFTP forward IP address parameter data type
[%s]:[%s] - %s - NO PortForwarding Object in the JSON data
[%s]:[%s] - Invalid RESERVED_IP_MAC parameter data type
Invalid Reserved IP settings Object IP address parameter data type
Invalid Reserved IP settings Object MAC parameter data type
[%s]:[%s] - Invalid Reserved IP Settings host name:(%s) length should be less than %d
Invalid Reserved IP address settings object name %s should be less than %d
[%s]:[%s] - Invalid RESERVED_IP_DEVICE_NAME parameter data type
Invalid Reserved IP settings Object Host_Name parameter data type
Home Entertrainment
[%s]:[%s] - Invalid RESERVED_IP_DEVICE_TYPE parameter data type
Invalid Reserved IP settings Object Device_Type parameter data type
[%s]:[%s] - Invalid RESERVED_IP_LIST count=%d
Invalid Reserved IP settings Object. List count is exceeded.
[%s]:[%s] - %s:v->u.object.len %d
[%s]:[%s] - %s - NO Reserved IP Settings Object in the JSON data
[%s]:[%s] - Folder Names are more than device to support. device supported folder name count=%d, but received folder count is:%d
Invalid File sharing settings Object. Top level folder count is exceeded.
FolderName
[%s]:[%s] - Invalid File sharing top level folder name parameter data type
Invalid File sharing settings Object sharing top level folder name parameter data type
[%s]:[%s] - %s:node->u.array.len Empty
MiFiSharingSettings
MiFiSharingEnabled
[%s]:[%s] - Invalid file sharing enabled parameter data type
Invalid File Sharing settings Object enabled parameter data type
MiFiSharingName
[%s]:[%s] - Invalid file sharing name parameter data type
Invalid File Sharing settings Object name parameter data type
MiFiSharingOnDisplay
[%s]:[%s] - Invalid file sharing On Display enabled parameter data type
Invalid File Sharing settings Object on display enabled parameter data type
MiFiSharingContentToShare
All folders and files
Specified top-level folders
[%s]:[%s] - Invalid object file sharing settings of connect to share %s
Invalid File Sharing settings Object content to share parameter value
Invalid File Sharing settings Object content to share parameter data type
MiFiSharingTopLevelFolder
[%s]:[%s] - Invalid file sharing enabled parameter data type : top level folder
Invalid File Sharing settings Object top level folder parameter data type
MiFiSharingAccessType
Read-only
Read-write
Invalid File Sharing settings Object access type parameter value
Invalid File Sharing settings Object access type parameter data type
MiFiSharingWifiNetworkAccess
[%s]:[%s] - Invalid file sharing wifi primary enabled parameter data type
Invalid File Sharing settings Object primary wifi enabled parameter data type
MiFiSharingGuestWifiNetworkAccess
[%s]:[%s] - Invalid file sharing guest wifi enabled parameter data type
Invalid File Sharing settings Object guest wifi enabled parameter data type
[%s]:[%s] - %s - NO File Sharing Settings Object in the JSON data
[%s]:[%s] - Invalid IPPT_SETTINGS_DATA_TYPE_ERROR parameter data type
Invalid IPPT settings Object ippt enabled parameter data type
[%s]:[%s] - Invalid IPPT_SETTINGS_DATA_TYPE_ERROR %s
Invalid IPPT settings Object ippt interface type parameter value
[%s]:[%s] - Invalid IPPT_SETTINGS_DATA_TYPE_ERROR interface parameter data type
Invalid IPPT Settings Object ippt interface parameter data type
[%s]:[%s] - %s - NO VPNSettings Object in the JSON data
[%s]:[%s] - Invalid GPS local nmeaGga parameter data type
Invalid GPS local nmeaGga parameter data type
[%s]:[%s] - Invalid GPS local nmeaGll parameter data type
Invalid GPS local nmeaGll parameter data type
[%s]:[%s] - Invalid GPS local nmeaGsa parameter data type
Invalid GPS local nmeaGsa parameter data type
[%s]:[%s] - Invalid GPS local nmeaGsv parameter data type
Invalid GPS local nmeaGsv parameter data type
[%s]:[%s] - Invalid GPS local nmeaRmc parameter data type
Invalid GPS local nmeaRmc parameter data type
[%s]:[%s] - Invalid GPS local nmeaVtg parameter data type
Invalid GPS local nmeaVtg parameter data type
[%s]:[%s] - Invalid GPS local nmeaZda parameter data type
Invalid GPS local nmeaZda parameter data type
[%s]:[%s] - Invalid GPS local nmeaId parameter data type
Invalid GPS local nmeaId parameter data type
[%s]:[%s] - Invalid GPS local NMEAOptions parameter as some options are missing
Invalid GPS local NMEAOptions parameter as some options are missing
[%s]:[%s] - Invalid GPS local taipAl parameter data type
Invalid GPS local taipAl parameter data type
[%s]:[%s] - Invalid GPS local taipCp parameter data type
Invalid GPS local taipCp parameter data type
[%s]:[%s] - Invalid GPS local taipLn parameter data type
Invalid GPS local taipLn parameter data type
[%s]:[%s] - Invalid GPS local taipPv parameter data type
Invalid GPS local taipPv parameter data type
[%s]:[%s] - Invalid GPS local taipTm parameter data type
Invalid GPS local taipTm parameter data type
[%s]:[%s] - Invalid GPS local taipId parameter data type
Invalid GPS local taipId parameter data type
[%s]:[%s] - Invalid GPS local TAIPOptions parameter as some options are missing
Invalid GPS local TAIPOptions parameter as some options are missing
[%s]:[%s] - Invalid GPS local TAIPOptions parameter
Invalid GPS local TAIPOptions parameter
[%s]:[%s] - Invalid GPS local NMEAOptions parameter
Invalid GPS local NMEAOptions parameter
[%s]:[%s] - Invalid GPS Local Enabled parameter data type
Invalid GPS Local Enabled parameter data type
[%s]:[%s] - Invalid GPS Local GlobalDeviceID parameter data type
Invalid GPS Local GlobalDeviceID parameter data type
[%s]:[%s] - network protocol[%s]
[%s]:[%s] - Invalid GPS local protocol parameter data type
Invalid GPS local protocol parameter data type
[%s]:[%s] - Invalid GPS local StoreAndForward parameter data type
Invalid GPS local StoreAndForward parameter data type
[%s]:[%s] - Invalid GPS local IP Address
Invalid GPS local IP Address
[%s]:[%s] - Invalid GPS local port number
Invalid GPS local port number
[%s]:[%s] - Invalid GPS local reporting mode
Invalid GPS local reporting mode
[%s]:[%s] - Invalid GPS local ReportingOptionsNmea
Invalid GPS Remote ReportingOptionsNmea for index: %d
[%s]:[%s] - %s - NO GPS local Object in the JSON data
[%s]:[%s] - Invalid object Accelerometer settings object motion detection threashold %d
Invalid Accelerometer settings object motion detection threashold  parameter value
[%s]:[%s] - Invalid Accelerometer settings motion detection threashold  parameter data type
Invalid Accelerometer settings object motion detection threashold  data type
[%s]:[%s] - Invalid object Accelerometer settings object motion detection count %d
Invalid Accelerometer settings object motion detection count  parameter value
[%s]:[%s] - Invalid Accelerometer settings motion detection count parameter data type
Invalid Accelerometer settings object motion detection count data type
[%s]:[%s] - Invalid object Accelerometer settings object motion detection hold_time %d
Invalid Accelerometer settings object motion detection hold_time  parameter value
[%s]:[%s] - Invalid Accelerometer settings motion detection hold_time  parameter data type
Invalid Accelerometer settings object motion detection hold_time data type
[%s]:[%s] - Invalid object Accelerometer settings object braking threshold %d
Invalid Accelerometer settings object baking threshold parameter value at %d
[%s]:[%s] - Invalid Accelerometer settings braking thresholds  threashold  parameter data type
Invalid Accelerometer settings object braking thresholds threashold data type at %d
[%s]:[%s] - Invalid object Accelerometer settings object braking set time %d
Invalid Accelerometer settings object baking set time parameter value at %d
[%s]:[%s] - Invalid Accelerometer settings braking thresholds set time  parameter data type
Invalid Accelerometer settings object braking thresholds set time data type at %d
[%s]:[%s] - Invalid object Accelerometer settings object braking clear time %d
Invalid Accelerometer settings object baking clear time parameter value at %d
[%s]:[%s] - Invalid Accelerometer settings braking thresholds clear time  parameter data type
Invalid Accelerometer settings object braking thresholds clear time data type at %d
[%s]:[%s] - Invalid object Accelerometer settings object braking max time %d
Invalid Accelerometer settings object baking max time parameter value at %d
[%s]:[%s] - Invalid Accelerometer settings braking thresholds max time  parameter data type
Invalid Accelerometer settings object braking thresholds max time data type at %d
[%s]:[%s] - Invalid acc  count=%d
Invalid  list count is exceeded.
[%s]:[%s] - Invalid object Accelerometer settings object accelerationlist threshold %d
Invalid Accelerometer settings object accelerationlist threshold parameter value at %d
[%s]:[%s] - Invalid Accelerometer settings accelerationlist thresholds  threashold  parameter data type
Invalid Accelerometer settings object accelerationlist thresholds threashold data type at %d
[%s]:[%s] - Invalid object Accelerometer settings object accelerationlist set time %d
Invalid Accelerometer settings object accelerationlist set time parameter value at %d
[%s]:[%s] - Invalid Accelerometer settings accelerationlist thresholds set time  parameter data type
Invalid Accelerometer settings object accelerationlist thresholds set time data type at %d
[%s]:[%s] - Invalid object Accelerometer settings object accelerationlist clear time %d
Invalid Accelerometer settings object accelerationlist  clear time parameter value at %d
[%s]:[%s] - Invalid Accelerometer settings accelerationlist thresholds clear time  parameter data type
Invalid Accelerometer settings object accelerationlist thresholds clear time data type at %d
[%s]:[%s] - Invalid object Accelerometer settings object accelerationlist max time %d
Invalid Accelerometer settings object accelerationlist max time parameter value at %d
[%s]:[%s] - Invalid Accelerometer settings accelerationlist thresholds max time  parameter data type
Invalid Accelerometer settings object accelerationlist thresholds max time data type at %d
[%s]:[%s] - Invalid object Accelerometer settings object rightTurnlist threshold %d
Invalid Accelerometer settings object rightTurnlist threshold parameter value at %d
[%s]:[%s] - Invalid Accelerometer settings rightTurnlist thresholds  threashold  parameter data type
Invalid Accelerometer settings object rightTurnlist thresholds threashold data type at %d
[%s]:[%s] - Invalid object Accelerometer settings object rightTurnlist set time %d
Invalid Accelerometer settings object rightTurnlist set time parameter value at %d
[%s]:[%s] - Invalid Accelerometer settings rightTurnlist thresholds set time  parameter data type
Invalid Accelerometer settings object rightTurnlist thresholds set time data type at %d
[%s]:[%s] - Invalid object Accelerometer settings object rightTurnlist clear time %d
Invalid Accelerometer settings object rightTurnlist clear time parameter value at %d
[%s]:[%s] - Invalid Accelerometer settings rightTurnlist thresholds clear time  parameter data type
Invalid Accelerometer settings object rightTurnlist thresholds clear time data type at %d
[%s]:[%s] - Invalid object Accelerometer settings object rightTurnlist max time %d
Invalid Accelerometer settings object rightTurnlist max time parameter value at %d
[%s]:[%s] - Invalid Accelerometer settings rightTurnlist thresholds max time  parameter data type
Invalid Accelerometer settings object rightTurnlist thresholds max time data type at %d
[%s]:[%s] - Invalid object Accelerometer settings object leftTurnlist threshold %d
Invalid Accelerometer settings object leftTurnlist threshold parameter value at %d
[%s]:[%s] - Invalid Accelerometer settings leftTurnlist thresholds  threashold  parameter data type
Invalid Accelerometer settings object leftTurnlist thresholds threashold data type at %d
[%s]:[%s] - Invalid object Accelerometer settings object  leftTurnlist set time %d
Invalid Accelerometer settings object leftTurnlist set time parameter value at %d
[%s]:[%s] - Invalid Accelerometer settings leftTurnlist thresholds set time  parameter data type
Invalid Accelerometer settings object leftTurnlist thresholds set time data type at %d
[%s]:[%s] - Invalid object Accelerometer settings object leftTurnlist clear time %d
Invalid Accelerometer settings object leftTurnlist clear time parameter value at %d
[%s]:[%s] - Invalid Accelerometer settings leftTurnlist thresholds clear time  parameter data type
Invalid Accelerometer settings object leftTurnlist thresholds clear time data type at %d
[%s]:[%s] - Invalid object Accelerometer settings object leftTurnlist max time %d
Invalid Accelerometer settings object leftTurnlist max time parameter value at %d
[%s]:[%s] - Invalid Accelerometer settings leftTurnlist thresholds max time  parameter data type
Invalid Accelerometer settings object leftTurnlist thresholds max time data type at %d
[%s]:[%s] - Invalid object Accelerometer settings object verticallist threshold %d
Invalid Accelerometer settings object verticallist threshold parameter value at %d
[%s]:[%s] - Invalid Accelerometer settings verticallist thresholds  threashold  parameter data type
Invalid Accelerometer settings object verticallist thresholds threashold data type at %d
[%s]:[%s] - Invalid object Accelerometer settings object verticallist set time %d
Invalid Accelerometer settings object verticallist set time parameter value at %d
[%s]:[%s] - Invalid Accelerometer settings verticallist thresholds set time  parameter data type
Invalid Accelerometer settings object verticallist thresholds set time data type at %d
[%s]:[%s] - Invalid object Accelerometer settings object verticallist clear time %d
Invalid Accelerometer settings object verticallist clear time parameter value at %d
[%s]:[%s] - Invalid Accelerometer settings verticallist thresholds clear time  parameter data type
Invalid Accelerometer settings object verticallist thresholds clear time data type at %d
[%s]:[%s] - Invalid object Accelerometer settings object verticallist max time %d
Invalid Accelerometer settings object verticallist max time parameter value at %d
[%s]:[%s] - Invalid Accelerometer settings verticallist thresholds max time  parameter data type
Invalid Accelerometer settings object verticallist thresholds max time data type at %d
[%s]:[%s] - Invalid object Accelerometer settings object Magnitudelist threshold %d
Invalid Accelerometer settings object Magnitudelist threshold parameter value at %d
[%s]:[%s] - Invalid Accelerometer settings Magnitudelist thresholds  parameter data type
Invalid Accelerometer settings object Magnitudelist thresholds threashold data type at %d
[%s]:[%s] - Invalid object Accelerometer settings object Magnitudelist set time %d
Invalid Accelerometer settings object Magnitudelist set time parameter value at %d
[%s]:[%s] - Invalid Accelerometer settings Magnitudelist thresholds set time  parameter data type
Invalid Accelerometer settings object Magnitudelist thresholds set time data type at %d
[%s]:[%s] - Invalid object Accelerometer settings object Magnitudelist clear time %d
Invalid Accelerometer settings object Magnitudelist clear time parameter value at %d
[%s]:[%s] - Invalid Accelerometer settings Magnitudelist thresholds clear time  parameter data type
Invalid Accelerometer settings object Magnitudelist thresholds clear time data type at %d
[%s]:[%s] - Invalid object Accelerometer settings object Magnitudelist max time %d
Invalid Accelerometer settings object Magnitudelist max time parameter value at %d
[%s]:[%s] - Invalid Accelerometer settings Magnitudelist thresholds max time  parameter data type
Invalid Accelerometer settings object Magnitudelist thresholds max time data type at %d
[%s]:[%s] - Invalid ACCELEROMETER_SETTINGS_DATA_TYPE_ERROR parameter data type
Invalid Accelerometer settings object enabled parameter data type
[%s]:[%s] - Invalid object Accelerometer settings object Grange %s
Invalid Accelerometer settings object Grange parameter value
[%s]:[%s] - Invalid Accelerometer settings object Grange  parameter data type
Invalid Accelerometer settings object Grange  parameter data type
Invalid Accelerometer settings object auto calibration parameter data type
Invalid Accelerometer settings object retan calibration data on restart parameter data type
[%s]:[%s] - Invalid object Accelerometer settings object quality_factor_threshold %d
Invalid Accelerometer settings object quality factor threshold parameter value
[%s]:[%s] - Invalid Accelerometer settings object quality_factor_threshold parameter data type
Invalid Accelerometer settings object quality factor threshold parameter data type
motiondetection
driverbehavior
[%s]:[%s] - Invalid object Accelerometer settings object Mode  %s
Invalid Accelerometer settings object Mode parameter value
[%s]:[%s] - Invalid Accelerometer settings object Mode parameter data type
Invalid Accelerometer settings object Mode  parameter data type
[%s]:[%s] - %s - NO AccelerometerSettings Object in the JSON data
[%s]:[%s] - %s - 66666
[%s]:[%s] - Invalid USB settings recieve buffer size threshold(%d) parameter value
Invalid USB settings recieve buffer size threshold parameter value
[%s]:[%s] - Invalid USB settings recieve buffer size threshold data type
Invalid USB settings recieve buffer size  threshold data type
[%s]:[%s] - Invalid USB settings recieve time threshold(%d) parameter value
Invalid USB settings recieve time threshold parameter value
[%s]:[%s] - Invalid USB settings recieve time threshold data type
Invalid USB settings recieve time threshold data type
[%s]:[%s] - %s:port_name %s
[%s]:[%s] - Invalid USB Serial settings object port name parameter data type
Invalid USB Serial settings object port name data type
[%s]:[%s] - Invalid USB settings Baud rate(%d) parameter value
Invalid USB settings Baud rate parameter value
[%s]:[%s] - Invalid USB Serial settings object baud rate parameter data type
Invalid USB Serial settings object baud rate data type
[%s]:[%s] - Invalid USB settings Data bits(%d) parameter value
Invalid USB settings Data bits parameter value
[%s]:[%s] - Invalid USB Serial settings object data bits parameter data type
Invalid USB Serial settings object bata bits data type
[%s]:[%s] - Invalid USB settings stop bits(%d) parameter value
Invalid USB settings stop bits parameter value
[%s]:[%s] - Invalid USB Serial settings object stop bits parameter data type
Invalid USB Serial settings object stop bits data type
[%s]:[%s] - Invalid USB settings parity(%d) parameter value
Invalid USB settings parity parameter value
[%s]:[%s] - Invalid USB serial settings object Parity Mode parameter data type
Invalid USB Serial settings object Parity Mode parameter data type
[%s]:[%s] - Invalid USB serial settings object flow control parameter data type
Invalid USB Serial settings object flow control parameter data type
[%s]:[%s] - %s - NO USBSettings Object in the JSON data
[%s]:[%s] - Invalid Software update Setting parameter data type
Invalid Software update Settings object opt out enabled parameter data type
[%s]:[%s] - %s - NO Software update Settings Object in the JSON data
[%s]:[%s] - Invalid SIM_MANAGEMENT_AUTO_SIM_SWITCHING parameter data type
Invalid sim management settings SIM switching enabled parameter data type
[%s]:[%s] - Invalid SIM_MANAGEMENT_ROAMING_ENABLED parameter data type
Invalid sim management settings roaming enabled parameter data type
[%s]:[%s] - Invalid SIM_MANAGEMENT_NETWORK_TECHNOLOGY %d
Invalid SIM Manager Settings Object Network Technology  parameter data type
[%s]:[%s] - Invalid SIM_MANAGEMENT_NETWORK_TECHNOLOGY parameter data type
[%s]:[%s] - Invalid SIM_MANAGEMENT_5G_NETWORK_MODE parameter value
Invalid sim management Settings Object 5G Network Mode parameter Value
[%s]:[%s] - Invalid SIM_MANAGEMENT_5G_NETWORK_MODE parameter data type
Invalid sim management Settings Object 5G Network Mode parameter data type
[%s]:[%s] - %s:simObj->u.array.len %d
[%s]:[%s] - Invalid SIM_MANAGEMENT_SIM_PRIORITY parameter data type
Invalid SIM Management Settings Object Active IMSI parameter data type
[%s]:[%s] - Invalid SIM_SLOT parameter data type
Invalid SIM Management Settings Object SIM_SLOT  parameter data type
[%s]:[%s] - Invalid IMSI parameter data type
Invalid SIM Management Settings Object IMSI parameter data type
[%s]:[%s] - Invalid ICCID parameter data type
Invalid SIM Management Settings Object ICCID parameter data type
[%s]:[%s] - Invalid SIM Management Settings apn
[%s]:[%s] - apn is [%s]
[%s]:[%s] - Invalid APN parameter data type
Invalid SIM Management Settings Object APN parameter data type
[%s]:[%s] - Invalid SIM_MANAGEMENT_SIM_AUTHENTICATION parameter data type
[%s]:[%s] - Invalid SIM_MANAGEMENT_SIM_USERNAME parameter data type
Invalid SIM ManagementSettings Object sim username parameter data type
[%s]:[%s] - Invalid SIM_MANAGEMENT_SIM_PASSWORD parameter data type
Invalid SIM Management Settings Object sim password parameter data type
[%s]:[%s] - Invalid SIM_MANAGEMENT_SIM_PDPTYPE parameter data type
Invalid SIM Management Settings Object sim pdp type parameter data type
[%s]:[%s] - %s - NO SimManagementSettings Object in the JSON data
[%s]:[%s] - %s - activeSlot[%s]
[%s]:[%s] - Invalid SIM_CONFIGURATIONS_CONNECTION_FAILOVER_ENABLED parameter data type
Invalid SIM failback enabled parameter data type
[%s]:[%s] - Invalid SIM_CONFIGURATIONS_SIM_FAILOVER_TIMER %d
Invalid SIM Configuration failback timer value
[%s]:[%s] - Invalid SIM_CONFIGURATIONS_SIGNAL_STRENGTH_FAILOVER_ENABLED parameter data type
Invalid signal strength failover enabled parameter data type
[%s]:[%s] - Invalid SIM_CONFIGURATIONS_ENABLE_DATAUSAGE_SIM_SWITCH parameter data type
Invalid Enable Data Usage Based SIM Switch parameter data type
[%s]:[%s] - Invalid Slot number parameter data type
Invalid IMSI parameter data type
Invalid ICCID parameter data type
[%s]:[%s] - Invalid SIM_CONFIGURATIONS_SIGNAL_STRENGTH_FAILOVER_TIMER %d
Invalid SIM Configuration signal strengthfailover timer
[%s]:[%s] - Invalid SIM_CONFIGURATIONS_SIGNAL_STRENGTH_FAILOVER_TIMER parameter data type
Invalid signal strength failover timer parameter data type
[%s]:[%s] - Invalid SIM_CONFIGURATIONS_SIGNAL_STRENGTH %d
Invalid SIM Configuration signal strength
[%s]:[%s] - Invalid SIM_CONFIGURATIONS_SIGNAL_STRENGTH parameter data type
Invalid signal strength parameter data type
[%s]:[%s] - Invalid SIM_CONFIGURATIONS_SIM_FAILOVER_TIMER parameter data type
Invalid SIM failover timer parameter data type
[%s]:[%s] - %s - NO SIM Configuration Object in the JSON data
[%s]:[%s] - Invalid DEVICE AGENT_ENABLED parameter data type
Invalid device agent settings enabled parameter data type
[%s]:[%s] - Invalid checkin duration parameter data type
Invalid checkin duration parameter data type
[%s]:[%s] - %s - Invalid HeartBeatTime parameter data type
Invalid HeartBeatTime Parameter data type
[%s]:[%s] - %s - NO Device Agent Checkin Duration in the JSON data
[%s]:[%s] - Invalid WAN_SETTINGS_ENABLED parameter data type
Invalid wan settings enabled parameter data type
[%s]:[%s] - Invalid wan lookup address1 parameter data type
Invalid wan lookup address1 parameter data type
[%s]:[%s] - Invalid wan lookup address2 parameter data type
Invalid wan lookup address2 parameter data type
[%s]:[%s] - Invalid wan lookup address3 parameter data type
Invalid wan lookup address3 parameter data type
[%s]:[%s] - Invalid wan number of attempts parameter data type
Invalid wan number of attempts parameter data type
[%s]:[%s] - Invalid wan attempt interval parameter data type
Invalid wan attempt interval parameter data type
[%s]:[%s] - Invalid wan retry interval parameter data type
Invalid wan retry interval parameter data type
[%s]:[%s] - Invalid WAN_SETTINGS_FAILOVER_ENABLED parameter data type
Invalid wan settings failover enabled parameter data type
[%s]:[%s] - Invalid wan failover interval parameter data type
Invalid wan failover interval parameter data type
[%s]:[%s] - Invalid WAN_SETTINGS_FAILBACK_ENABLED parameter data type
Invalid wan settings failback enabled parameter data type
[%s]:[%s] - Invalid wan failback interval parameter data type
Invalid wan failback interval parameter data type
[%s]:[%s] - Invalid GPIO Pin1 Setting parameter data type
Invalid GPIO Pin1 Setting parameter data type
[%s]:[%s] - Invalid GPIO Pin1 Ingnition Setting parameter data type
Invalid GPIO Pin1 Ingnition Setting parameter data type
[%s]:[%s] - Invalid GPIO ShutdownTime :(%d)
Invalid GPIO ShutdownTime parameter value
[%s]:[%s] - Invalid GPIO ShutdownTime parameter data type
Invalid GPIO ShutdownTime parameter data type
[%s]:[%s] - Invalid GPIO Shutdown Voltage :(%d)
Invalid GPIO Shutdown Voltage parameter value
[%s]:[%s] - Invalid GPIO Shutdown Voltage parameter data type
Invalid GPIO Shutdown Voltage parameter data type
[%s]:[%s] - Invalid GPIO IO Setting Pin1 Mode :(%d)
Invalid GPIO IO Setting Pin1 Mode parameter value
[%s]:[%s] - Invalid GPIO IO Setting Pin1 Mode parameter data type
Invalid GPIO IO Setting Pin1 Mode parameter data type
[%s]:[%s] - Invalid GPIO Pin1 IO Setting Name : %s
Invalid GPIO Pin1 IO Setting Name : %S
[%s]:[%s] - Invalid GPIO Pin1 Low State Name : %s
Invalid GPIO Pin1 Low State Name : %S
[%s]:[%s] - Invalid GPIO Pin1 High State Name : %s
Invalid GPIO Pin1 High State Name : %S
[%s]:[%s] - Invalid GPIO Pin1 Create Banner Alert :(%d)
Invalid GPIO Pin1 Create Banner Alert parameter value
[%s]:[%s] - Invalid GPIO Pin1 Create Banner Alert parameter data type
Invalid GPIO Pin1 Create Banner Alert parameter data type
[%s]:[%s] - Invalid GPIO Settings Pin1 parameter data type
Invalid GPIO Settings Pin1 parameter data type
[%s]:[%s] - Invalid GPIO Pin2 Setting parameter data type
Invalid GPIO Pin2 Setting parameter data type
[%s]:[%s] - Invalid GPIO IO Setting Pin2 Mode :(%d)
Invalid GPIO IO Setting Pin2 Mode parameter value
[%s]:[%s] - Invalid GPIO IO Setting Pin2 Mode parameter data type
Invalid GPIO IO Setting Pin2 Mode parameter data type
[%s]:[%s] - Invalid GPIO Pin2 IO Setting Name : %s
Invalid GPIO Pin2 IO Setting Name : %S
[%s]:[%s] - Invalid GPIO Pin2 Low State Name : %s
Invalid GPIO Pin2 Low State Name : %s
[%s]:[%s] - Invalid GPIO Pin2 High State Name : %s
Invalid GPIO Pin2 High State Name : %S
[%s]:[%s] - Invalid GPIO Pin2 Create Banner Alert :(%d)
Invalid GPIO Pin2 Create Banner Alert parameter value
[%s]:[%s] - Invalid GPIO Pin2 create Banner Alert parameter data type
Invalid GPIO Pin2 Create Banner Alert parameter data type
[%s]:[%s] - Invalid GPIO Settings parameter data type
Invalid GPIO Settings parameter data type
[%s]:[%s] - %s - NO  GPIOSettings Object in the JSON data
[%s]:[%s] - Invalid VPN_SETTINGS_DATA_TYPE_ERROR parameter data type
Invalid VPN settings object vpn auto connect enabled parameter data type
/tmp/config_module
mkdir -p 
 --cacert /etc/ssl/certs/cacerts.pem -L 
/configfiles.zip
/configfiles.zip -d 
[%s]:[%s] - Invalid Certificate url parameter data type
Invalid VPN Settings object Ceritificate url parameter data type
[%s]:[%s] - Invalid  VPN_SETTINGS_DATA_TYPE_ERROR username parameter data type
Invalid VPN Settings object username parameter data type
[%s]:[%s] - Invalid  VPN_SETTINGS_DATA_TYPE_ERROR password parameter data type
Invalid VPN Settings object password parameter data type
[%s]:[%s] - Error while handling WIFI network settings info : WIFI_NETWORK_SETTINGS_DATA_TYPE_ERROR
[%s]:[%s] - handling WiFi Network Settings Info successful
[%s]:[%s] - Error while handling WIFI Guest Network Settings info : WIFI_GUEST_NETWORK_SETTINGS_DATA_TYPE_ERROR
[%s]:[%s] - handling WiFi Guest Network Settings Info successful
[%s]:[%s] - Error while handling WIFI Advanced settings info : WIFI_ADVANCED_SETTINGS_DATA_TYPE_ERROR
[%s]:[%s] - handling WiFi Advanced Settings Info successful
[%s]:[%s] - Error while handling Admin Password Settings info : ADMIN_PASSWORD_SETTINGS_DATA_TYPE_ERROR
[%s]:[%s] - handling AdminPassword Settings Info successful
[%s]:[%s] - Error while handling device preferences info : DEVICE_PREFERENCES_DATA_TYPE_ERROR
[%s]:[%s] - handling DevicePreferences Settings Info successful
[%s]:[%s] - Error while handling manual DNS settings info : MANUAL_DNS_SETTINGS_DATA_TYPE_ERROR
[%s]:[%s] - handling ManualDNSSettings Settings Info successful
[%s]:[%s] - Error while handling Firewall Settings info : FIREWALL_SETTINGS_DATA_TYPE_ERROR
[%s]:[%s] - handling Firewall Settings Info successful
[%s]:[%s] - Error while handling MAC Filter Settings info : MAC_FILTER_SETTINGS_DATA_TYPE_ERROR
[%s]:[%s] - handling MAC Filter Settings Info successful
[%s]:[%s] - Error while handling blocked devices info : BLOCKED_DEVICES_DATA_TYPE_ERROR
[%s]:[%s] - handling BlockedDevices Settings Info successful
[%s]:[%s] - Error while handling white list devices info :WHITE_LISTED_DEVICES_DATA_TYPE_ERROR
[%s]:[%s] - handling White Listed Devices Settings Info successful
[%s]:[%s] - Error while handling LAN settings info : LAN_SETTINGS_DATA_TYPE_ERROR
[%s]:[%s] - handling LAN Settings Info successful
[%s]:[%s] - Error while handling GPS settings info : GPS_SETTINGS_DATA_TYPE_ERROR
[%s]:[%s] - handling GPS Settings Info successful
[%s]:[%s] - Error while handling GPS Remote settings info : GPS_REMOTE_SETTINGS_DATA_TYPE_ERROR
[%s]:[%s] - handling GPS Remote Settings Info successful
[%s]:[%s] - Error while handling GPIO settings info : GPIO_SETTINGS_DATA_TYPE_ERROR
[%s]:[%s] - handling GPIO Settings Info successful
[%s]:[%s] - Error while handling Logs info : LOGS_DATA_TYPE_ERROR
[%s]:[%s] - handling Log Settings Info successful
[%s]:[%s] - Error while handling mobile network settings info : MOBILE_NETWORK_SETTINGS_DATA_TYPE_ERROR
[%s]:[%s] - handling MobileNetwork Settings Info successful
[%s]:[%s] - Error while handling port filter settings info : PORT_FILTERING_SETTINGS_DATA_TYPE_ERROR
[%s]:[%s] - handling PortFiltering Settings Info successful
[%s]:[%s] - Error while handling port forward settings info : PORT_FORWARDING_SETTINGS_DATA_TYPE_ERROR
[%s]:[%s] - handling PortForwarding Settings Info successful
[%s]:[%s] - RESERVED_IP_SETTINGS_DATA_TYPE_ERROR
[%s]:[%s] - handling Reserved IP Settings Info successful
[%s]:[%s] - Error while handling MiFi Sharing settings info : FILE_SHARING_SETTINGS_DATA_TYPE_ERROR
[%s]:[%s] - handling File Sharing Settings Info successful
[%s]:[%s] - Error while handling VPN settings info : VPN_SETTINGS_DATA_TYPE_ERROR
[%s]:[%s] - handling VPN Settings Info successful
[%s]:[%s] - Error while handling IPPT settings info : IPPT_SETTINGS_DATA_TYPE_ERROR
[%s]:[%s] - handling IPPT Settings Info successful
[%s]:[%s] - Error while handling Data Usage settings info : DATA_USAGE_SETTINGS_DATA_TYPE_ERROR
[%s]:[%s] - handling Data Usage Settings Info successful
[%s]:[%s] - Error while handling Accelerometer settings info : ACCELEROMETER_SETTINGS_DATA_TYPE_ERROR
[%s]:[%s] - handling Accelerometer Settings Info successful
[%s]:[%s] - Error while handling local GPS settings info : LOCAL_GPS_SETTINGS_DATA_TYPE_ERROR
[%s]:[%s] - handling local GPS Settings Info successful
[%s]:[%s] - Error while handling Software Settings info : SOFTWARE_UPDATE_SETTINGS_DATA_TYPE_ERROR
[%s]:[%s] - handling Software update Settings Info successful
[%s]:[%s] - Error while handling USB Serial settings info : USB_SERIAL_SETTINGS_DATA_TYPE_ERROR
[%s]:[%s] - handling USB Serial Settings Info successful
[%s]:[%s] - Error while handling Device Agent settings info : DEVICE_AGENT_DATA_TYPE_ERROR
[%s]:[%s] - handling Device Agent Settings Info successful
[%s]:[%s] - Error while handling WAN settings info : WAN_SETTINGS_DATA_TYPE_ERROR
[%s]:[%s] - handling WanSettingsInfo Settings Info successful
[%s]:[%s] - Error while handling SIM Management settings info : SIM_MANAGEMENT_DATA_TYPE_ERROR
[%s]:[%s] - handling SIM Management Settings Info successful
[%s]:[%s] - Error while handling SIM Configuration settings info : SIM_CONFIGURATIONS_DATA_TYPE_ERROR
[%s]:[%s] - handling SIM Configuration Settings Info successful
[%s]:[%s] - Error while handling IPSecVPN Settings info : SIM_CONFIGURATIONS_DATA_TYPE_ERROR
[%s]:[%s] - handling IPSecVPN Settings Info successful
AccessControlSettings
[%s]:[%s] - NO IMEI in the JSON data
[%s]:[%s] - NO COMMAND_ID in the JSON data
[%s]:[%s] - NO COMMAND in the JSON data
[%s]:[%s] - %s - argLen [%d]
[%s]:[%s] - %s - argKey [%s]
[%s]:[%s] - Invalid simslot argument in the JSON data
[%s]:[%s] - Invalid mode argument in the JSON data
interface
[%s]:[%s] - Invalid interface argument in the JSON data
[%s]:[%s] - Invalid key argument in the JSON data
[%s]:[%s] - Invalid pin argument in the JSON data
[%s]:[%s] - Invalid command argument in the JSON data
[%s]:[%s] - argkey{%s}
[%s]:[%s] - key{%s}
[%s]:[%s] - response [%s]
[%s]:[%s] - Invalid IPsecVPN Tunnel ID argument in the JSON data
[%s]:[%s] - Invalid VPN Status type argument in the JSON data
[%s]:[%s] - NO ARGUMENTS in the JSON data
[%s]:[%s] - %s - displayenabled BEGIN
[%s]:[%s] - %s - writeEnabled BEGIN
Out of memory
/opt/nvtl/builds/release2/SDX55_4.05.1.1_OS_4.14_App_4.006/MiFiOS2/source/agents/configuration_module/src/configuration_yail_handler.cc
(ctx->stack == NULL) || YAJL_IS_OBJECT (v) || YAJL_IS_ARRAY (v)
context_pop: Bottom of stack reached prematurely
ctx != NULL
obj != NULL
key != NULL
value != NULL
YAJL_IS_OBJECT(obj)
array != NULL
YAJL_IS_ARRAY(array)
v != NULL
ctx->root == NULL
context_add_value: Object key is not a string (%#04x)
context_add_value: Cannot add value to a value of type %#04x (not a composite type)
Unsigned long
StringArray
__ATTRIBUTES__
data_type
is_required
is_unique
default_value
possible_values
validations
port_numbers
ui_behavior
possible_value
possible_range
validation
port_number
show_options
constraints
ascii_range
min_length
max_length
/Root/Config
[%s]:[%s] - %s - Golden Record Success
[%s]:[%s] - %s - Golden Record Failed
[%s]:[%s] - %s - sys_getSystemVersion Success
[%s]:[%s] - %s - sys_getSystemVersion Failed
external_antenna
password
installation_details
installer_id
start_time
end_time
location
eCompass
[%s]:[%s] - %s - sys_getGPSFixData() GPS data is valid
[%s]:[%s] - %s - sys_getGPSFixData() GPS data is invalid
latitude
longitude
altitude
mobile_details
manufacturer
operating_system
installer_passcode
[%s]:[%s] - %s - sys_getCellularServiceStats Success
[%s]:[%s] - %s - sys_getCellularServiceStats Failed
[%s]:[%s] - %s - sys_getAllSimSlotsInfo Failed
[%s]:[%s] - %s - GoldenRecord read failed or Data[imsi-%s iccid-%s] is not matched with available sims details
technology
bearer_type
performance_rating
[%s]:[%s] - %s - sys_getActiveSimSlot failed with error code: try sysintcli getActiveSimSlot from command line
[%s]:[%s] - %s - mDataUsageSimSlotsInfo.get() is NULL
[%s]:[%s] - %s - mSimIMSI.get() is NULL
[%s]:[%s] - %s - mSimICCID.get() is NULL
[%s]:[%s] - %s - mEthMAC.get() is NULL
[%s]:[%s] - %s - sys_getCurrentEthernetMACAddress failed with code = %d
[%s]:[%s] - %s - mDataUsageSettingsInfo.get() is NULL
[%s]:[%s] - %s - dua_get_data_usage_settings_info for simslot[%d] failed and returned [%d]
[%s]:[%s] - %s - sys_getEthernetEnabled failed with error:%d
[%s]:[%s] - %s - Ethernet Enabled for device
[%s]:[%s] - %s - dua_get_data_usage_settings_info for ethernet failed and returned [%d]
[%s]:[%s] - %s - Ethernet Disabled for device
[%s]:[%s] - %s - dua_get_data_usage_settings_info failed and returned [%d]
[%s]:[%s] - %s - DataUsageSettings of Interface[%d] [%s]
[%s]:[%s] - %s - DataUsageSettings of Interface:%d interface_type:%s cycle_day[%d] invalid
Invalid DataUsageSettings of Interface:%d interface_type:%s cycle day
[%s]:[%s] - %s - DataUsageSettings of Interface:%d interface_type:%s Usage_limit[%s] invalid
Invalid  DataUsageSettings of Interface:%d interface_type:%s Usage_limit
[%s]:[%s] - %s - DataUsageSettings of Interface:%d interface_type:%s warning_level[%d] invalid
Invalid DataUsageSettings of Interface:%d interface_type:%s warning_level
[%s]:[%s] - %s - DataUsageSettings unknown interface_type[%d]
Invalid DataUsageSettings interface_type:%d
[%s]:[%s] - %s - DataUsageSettings for simslot:%d failed and returned: [%d]
DataUsageSettings for SimSlot[%d] failed
[%s]:[%s] - %s - DataUsageSettings for simslot:%d success
[%s]:[%s] - %s - eth mac[%s]
[%s]:[%s] - %s - DataUsageSettings for ethernet failed and returned: [%d]
DataUsageSettings for Ethernet failed
[%s]:[%s] - %s - DataUsageSettings for ethernet success
[%s]:[%s] - %s - rxd if:%s level:%s
[%s]:[%s] - %s - DataUsageSettings Interface Oject Len:%d
SlotNumber
[%s]:[%s] - %s - DataUsageSettings Invalid Data Usage Settings sim slot number = %d
[%s]:[%s] - %s - DataUsageSettings Invalid Slot Number parameter data type
[%s]:[%s] - %s - DataUsageSettings Invalid IMSI parameter data type
[%s]:[%s] - %s - DataUsageSettings Invalid ICCID parameter data type
[%s]:[%s] - %s - DataUsageSettings Invalid Ethernet MAC address data type
CycleStartDay
[%s]:[%s] - %s - DataUsageSettings Invalid cycle_day[%d]
[%s]:[%s] - %s - DataUsageSettings CycleStartDay parameter DATA_USAGE_SETTINGS_DATA_TYPE_ERROR
MaxUsageLevel
[%s]:[%s] - %s - DataUsageSettings MaxUsageLevel is set to 0
[%s]:[%s] - %s - DataUsageSettings UsgaeLimit Invalid Value DATA_USAGE_SETTINGS_ERROR : %s
[%s]:[%s] - %s - DataUsageSettings UsageLimit Invalid OBJ_VALIDATION_DATA_USAGE_SETTINGS_ERROR : %s
[%s]:[%s] - %s - DataUsageSettings UsageLimit Invalid DATA_USAGE_SETTINGS_DATA_TYPE_ERROR
MeteredConnection
[%s]:[%s] - %s - DataUsageSettings Interface MeteredConnection Enabled
[%s]:[%s] - %s - DataUsageSettings Interface MeteredConnection Disabled
[%s]:[%s] - %s - DataUsageSettings MeteredConnection Invalid DATA_USAGE_SETTINGS_DATA_TYPE_ERROR
WarningLevel
[%s]:[%s] - %s - DataUsageSettings WarningLevel Invalid warning level[%d]
[%s]:[%s] - %s - DataUsageSettings WarningLevel Invalid DATA_USAGE_SETTINGS_DATA_TYPE_ERROR
[%s]:[%s] - %s - DataUsageSettings interface object len:%d
wan_interface
[%s]:[%s] - %s - DataUsageLevelEvent for WWAN
[%s]:[%s] - %s - DataUsageLevelEvent for ETH
[%s]:[%s] - %s - DataUsageLevelEvent for No Interface
[%s]:[%s] - %s - DataUsageLevel Event parsing response for WWAN
[%s]:[%s] - %s - Given IMSI and/or ICCID's not matched with available sims details
LevelFull
[%s]:[%s] - %s - DataUsageLevel Event parsing response for ETHERNET
interface_name
[%s]:[%s] - %s - WWAN object is not defined in Template
[%s]:[%s] - %s - Ethernet object is not defined in Template
[%s]:[%s] - %s - Object is invalid or Input Interface details are wrong
[%s]:[%s] - %s - DataUsageSettings object len:%d
[%s]:[%s] - %s - DataUsageSettings SimArrayLength[%d]
[%s]:[%s] - %s - DataUsageSettings Interface Object parameters are invalid in sim object:%d
DataUsageSettings Invalid for sim object:%d parameters/values
[%s]:[%s] - %s - DataUsageSettings extraction based on sim object:%d success
[%s]:[%s] - %s - DataUsageSettings extraction based on Eth object:%d success
[%s]:[%s] - %s - DataUsageSettings Interface Object parameters are invalid in Eth object:%d
DataUsageSettings Invalid for Eth object:%d parameters/values
[%s]:[%s] - %s - DataUsageSettings based on generic settings
[%s]:[%s] - %s - DataUsageSettings Interface Object parameters based on generic settings are invalid
DataUsageSettings Invalid for Object parameters/values for generic data usage settings
[%s]:[%s] - %s - DataUsageSettings extraction based on generic settings success
[%s]:[%s] - %s - DataUsageSettings Object Invalid parameter[%s]
[%s]:[%s] - %s - DataUsageSettings Interfaces count[%d] parsed
[%s]:[%s] - Parsed Successfully
[%s]:[%s] - verifying the buffered data
[%s]:[%s] - parsedindex[%d] readindex[%d]
[%s]:[%s] - %s - SimSlotNumber existed[%d] present[%d]
[%s]:[%s] - %s - DataUsageSettings Interface[%d] matched as sim at index[%d] 
[%s]:[%s] - %s - DataUsageSettings Interface[%d] not matched at sim index[%d] 
[%s]:[%s] - %s - DataUsageSettings Interface[%d] matched as eth at index[%d] 
[%s]:[%s] - %s - DataUsageSettings Interface[%d] not matched at eth index[%d] 
[%s]:[%s] - %s - DataUsageSettings Interface[%d] not matched at index[%d] 
[%s]:[%s] - %s - DataUsageSettings Interface[%d] usage_limit[%s] metered_connection[Enabled] cycle_day[%d] level1_threshold[%d] all settings modified rx_flag[%d]
[%s]:[%s] - %s - DataUsageSettings Interface[%d] usage_limit[%s] metered_connection[Disabled] cycle_day[%d] level1_threshold[%d] all settings modified rx_flag[%d]
[%s]:[%s] - %s - DataUsageSettings Interface[%d] MaxUsageLevel must be 0 Units(MB/GB/TB) for MeteredConnection Disabling and otherthan 0 Units in case of Enabling
DataUsageSettings Interface[%d] MaxUsageLevel must be 0 Units(MB/GB/TB) for MeteredConnection Disabling and otherthan 0 Units in case of Enabling
[%s]:[%s] - %s - DataUsageSettings Interface[%d] is not found
DataUsageSettings Interface[%d] is not found
[%s]:[%s] - %s - DataUsageSettings Interface[%d] usage_limit[%s] modified rx_flag[%d]
[%s]:[%s] - %s - DataUsageSettings Interface[%d] cycle_day[%d] modified rx_flag[%d]
[%s]:[%s] - %s - DataUsageSettings Interface[%d] level1_threshold[%d] rx_flag[%d]
[%s]:[%s] - %s - DataUsageSettings Interface[%d] usage_limit[%s] metered_connection[Enabled] modified rx_flag[%d]
[%s]:[%s] - %s - NO  Data Uasage settings Object in the JSON data
[%s]:[%s] - %s - dua_get_data_usage_settings_info failed with %d for interface:%d
[%s]:[%s] - %s - ifaceNum[%d] ifaceResponse[%s]
[%s]:[%s] - %s - sys_getNumSims failed with code = %d
[%s]:[%s] - %s - ETH MAC:%s
[%s]:[%s] - %s - no active sim slots
[%s]:[%s] - %s: Invalid Device Preference-> Local IP Address(%s)
Invalid Device preference local IP address.
[%s]:[%s] - %s: Invalid Device Preference->DeviceName(%s)
Invalid Device Preference->DeviceName
[%s]:[%s] - %s - RebootSchedulerSettings->Enabled[%d] Invalid Value
Invalid RebootSchedulerSettings->Enabled value
[%s]:[%s] - %s - RebootSchedulerSettings->Duration[%d] Invalid Value
Invalid RebootSchedulerSettings->Duration value
[%s]:[%s] - %s - RebootSchedulerSettings->RebootTime[%s] Invalid Value
Invalid RebootSchedulerSettings->RebootTime value
[%s]:[%s] - %s - RebootSchedulerSettings->ScheduleDays Day[%d] Invalid Value
Invalid RebootSchedulerSettings->ScheduleDays Day value
[%s]:[%s] - setHWFactoryResetEnabled failed and returned: [%d]
[%s]:[%s] - deviceui_set_screen_timeout_settings failed and returned: [%d]
[%s]:[%s] - setDeepSleepEnabled failed and returned : [%d]
setAutoShutdownEnabled
[%s]:[%s] - sys_setLEDEnabled failed and returned: [%d]
[%s]:[%s] - sys_setUIStealthModeEnabled failed and returned: [%d]
[%s]:[%s] - deviceui_set_notification_display_wakeup_setting_enabled failed and returned [%d]
[%s]:[%s] - deviceui_set_display_setting_enabled failed and returned: [%d]
[%s]:[%s] - mSaveUCAutoOffLevel
setUniversalChargingSettings
[%s]:[%s] - sys_getUSBTetheringEnabled failed
[%s]:[%s] - mSaveUSBMode
setUSBTetheringEnabled
enableWifiWhileTethered
[%s]:[%s] -  deviceui_set_usb_connection_prompt_enabled failed and returned: [%d]
[%s]:[%s] - sys_setUINotificationSettings failed and returned: [%d]
[%s]:[%s] -  sys_setAudioAlertsEnabled failed and returned: [%d]
[%s]:[%s] -  webui_set_i18n_settings failed and returned: [%d]
sys_setWebuiURL
[%s]:[%s] - setEthernetEnabled failed and returned: [%d]
[%s]:[%s] - %s - CPE Reboot Enabled[%d] Duration[%d] RebootTime[%s] ScheduleDays[%d,%d,%d,%d,%d,%d,%d]
setPowerSaveSettings
deviceui_get_display_setting_enabled
[%s]:[%s] - deviceui_set_display_setting_enabled returned : [%d]
getUniversalChargingSettings
[%s]:[%s] - getUniversalChargingSettings returned : [%d]
getPowerSaveSettings
[%s]:[%s] - getPowerSaveSettings failed and returned : [%d]
getLEDEnabled
[%s]:[%s] - getLEDEnabled failed and returned : [%d]
getUIStealthModeEnabled
[%s]:[%s] - getUIStealthModeEnabled failed and returned : [%d]
[%s]:[%s] - deviceui_get_notification_display_wakeup_setting_enabled failed and returned [%d]
[%s]:[%s] - getLANSettings failed and returned : [%d]
getUSBTetheringEnabled
[%s]:[%s] - getUSBTetheringEnabled failed and returned [%d]
[%s]:[%s] - getUSBTetheringEnabled for wifi mode failed and returned [%d]
[%s]:[%s] - deviceui_get_usb_connection_prompt_enabled failed and returned [%d]
Internet access via USB and Wifi
Internet access via USB only
USB Charging
[%s]:[%s] - Invalid USBModePreferences->USBMode(%s)
Invalid USB Mode Preferences Object USB Mode parameter value
[%s]:[%s] - Invalid USB_MODE_PREFERENCES MODE parameter data type
Invalid USB Mode Preferences Object USB Mode parameter data type
USBModePrompt
[%s]:[%s] - Invalid USB_MODE_PREFERENCES MODE_PROMPT parameter data type
Invalid USB Mode Preferences Object USB Mode prompt parameter data type
[%s]:[%s] - sys_getUINotificationSettings failed and returned [%d]
[%s]:[%s] - sys_getAudioAlertsEnabled failed and returned [%d]
AudioEnabled
[%s]:[%s] - Invalid AUDIO_PREFERENCES ENABLED parameter data type
Invalid Audio Preferences Object audio enabled parameter data type
AudioStartupShutdown
shutdown
[%s]:[%s] - Invalid AUDIO_PREFERENCES SHUTDOWN parameter data type
Invalid Audio Preferences Object shutdown parameter data type
AudioLowBattery
battery10
lowCharger
[%s]:[%s] - Invalid AUDIO_PREFERENCES LOW_BATTERY parameter data type
Invalid Audio Preferences Object low battery parameter data type
AudioCriticalLowBattery
batteryCritical
[%s]:[%s] - Invalid AUDIO_PREFERENCES CRITICAL_LOW_BATTERY parameter data type
Invalid Audio Preferences Object critical low battery parameter data type
AudioCharging
batteryCharging
[%s]:[%s] - Invalid AUDIO_PREFERENCES CHARGING parameter data type
Invalid Audio Preferences Object Charging parameter data type
AudioChargingComplete
batteryFull
[%s]:[%s] - Invalid AUDIO_PREFERENCES CHARGING_COMPLETE parameter data type
Invalid Audio Preferences Object charging complete parameter data type
AudioUniversalCharging
ucLowBattery
ucTerminated
[%s]:[%s] - Invalid AUDIO_PREFERENCES EXTERNAL_CHARGING parameter data type
Invalid Audio Preferences Object universal charging parameter data type
AudioUSBComputerConnection
usbModePrompt
[%s]:[%s] - Invalid AUDIO_PREFERENCES USB_MODE parameter data type
Invalid Audio Preferences Object USB computer connection parameter data type
AudioUSBMassStorage
usbMassStorage
[%s]:[%s] - Invalid AUDIO_PREFERENCES MASS_STORAGE parameter data type
Invalid Audio Preferences Object USB mass storage parameter data type
AudioSIMErrors
simError
simNonVZW
[%s]:[%s] - Invalid AUDIO_PREFERENCES SIM_ERRORS parameter data type
Invalid Audio Preferences Object SIM Errors parameter data type
AudioPCOServiceErrors
[%s]:[%s] - Invalid AUDIO_PREFERENCES PCO_SERVICE_ERRORS parameter data type
Invalid Audio Preferences Object PCO service parameter data type
AudioNewMessage
smsReceived
[%s]:[%s] - Invalid AUDIO_PREFERENCES NEW_MESSAGE parameter data type
Invalid Audio Preferences Object new message parameter data type
AudioConnectedDeviceJoins
deviceJoinWiFi
[%s]:[%s] - Invalid AUDIO_PREFERENCES DEVICE_JOINS parameter data type
Invalid Audio Preferences Object device joins parameter data type
AudioSoftwareUpdate
softwareUpdate
[%s]:[%s] - Invalid AUDIO_PREFERENCES SOFTWARE_UPDATE parameter data type
Invalid Audio Preferences Object Software update parameter data type
AudioRoaming
[%s]:[%s] - Invalid AUDIO_PREFERENCES ROAMING parameter data type
Invalid Audio Preferences Object roaming parameter data type
AudioWiFiTurnOff
wifiDisabled
[%s]:[%s] - Invalid AUDIO_PREFERENCES WIFI_DISABLED parameter data type
Invalid Audio Preferences Object WiFi Turnoff parameter data type
AudioNetworkSelection
switchToGlobalMode
noService
[%s]:[%s] - Invalid AUDIO_PREFERENCES NETWORK_SELECTION parameter data type
Invalid Audio Preferences Object network selection parameter data type
get HWFactoryResetEnabled
[%s]:[%s] - getAllowHWReset returned : [%d]
deviceui_get_screen_timeout_settings
[%s]:[%s] - deviceui_get_screen_timeout_settings failed and returned : [%d]
webui_get_i18n_settings
[%s]:[%s] - webui_get_i18n_settings during display settings failed and returned [%d]
Language
Italiano
Eestlane
Japanese
[%s]:[%s] - Invalid Display Language %s
Invalid Display settings Object language parameter value
[%s]:[%s] - Invalid display settings language parameter data type
Invalid Display settings Object language parameter data type
mm/dd/yyyy
dd/mm/yyyy
[%s]:[%s] - Invalid Display Date Format %s
Invalid Display settings Object date format parameter value
[%s]:[%s] - Invalid display settings date format parameter data type
Invalid Display settings Object date format parameter data type
[%s]:[%s] - Invalid DISPLAY_TIME_FORMAT %d
Invalid Display settings Object time format parameter value
[%s]:[%s] - Invalid DISPLAY_SETTINGS TIME_FORMAT parameter data type
Invalid Display settings Object time format parameter data type
Distance
[%s]:[%s] - Invalid DISPLAY_DISTANCE_FORMAT %s
Invalid Display settings Object distance format parameter value
[%s]:[%s] - Invalid DISPLAY_SETTINGS DISTANCE_FORMAT parameter data type
Invalid Display settings Object distance format parameter data type
NumberFormat
3,234.00
3.234,00
[%s]:[%s] - Invalid DISPLAY_NUMERIC_SEPARATOR %s
Invalid Display settings Object numeric separator parameter value
[%s]:[%s] - Invalid DISPLAY_SETTINGS NUMERIC_SEPARATOR parameter data type
Invalid Display settings Object numeric separator parameter data type
[%s]:[%s] - %s - Reboot Scheduler Enabled read Error
getWebuiURL
[%s]:[%s] - getWebuiURL failed and returned : [%d]
[%s]:[%s] - GetEnableEthernet returned : [%d]
AllowPreferencesChangeOnDisplay
[%s]:[%s] - Invalid DEVICE_PREFERENCES AllowEnable parameter data type
Invalid Device preferences Object allow preferences changes on display parameter data type
ResetEnabled
[%s]:[%s] - Invalid DEVICE_PREFERENCES Allow Hardware reset Enable parameter data type
Invalid Device preferences Object allow hardware reset parameter data type
UCAutoOffThreshold
[%s]:[%s] - Invalid UC auto off threshold value %d 
Invalid Device preferences Object UC auto off threshold parameter value
[%s]:[%s] - Invalid DEVICE_PREFERENCES UC_AUTOOFF parameter data type
Invalid Device preferences Object UC auto off threshold parameter data type
DisplayTimeout
[%s]:[%s] - Invalid DisplayTimeout value %d 
Invalid Device preferences Object display timeout parameter value
[%s]:[%s] - Invalid DEVICE_PREFERENCES DISPLAY_TIMEOUT parameter data type
Invalid Device preferences Object display timeout parameter data type
SleepTime
[%s]:[%s] - Invalid Sleep value %d
Invalid Device preferences Object sleep time parameter value
[%s]:[%s] - Invalid DEVICE_PREFERENCES SLEEP_TIME parameter data type
Invalid Device preferences Object sleep time parameter data type
[%s]:[%s] - Invalid DEVICE_PREFERENCES SHUTDOWN_TIME parameter data type
[%s]:[%s] - Invalid Shutdown value %d
Invalid Device preferences Object shutdown time parameter value
Invalid Device preferences Object shutdown time parameter data type
LEDEnabled
[%s]:[%s] - Invalid DEVICE_PREFERENCES LED_ENABLED parameter data type
Invalid Device preferences Object LED enabled parameter data type
StealthMode
[%s]:[%s] - Invalid DEVICE_PREFERENCES STEALTH_MODE_ENABLED parameter data type
Invalid Device preferences Object stealth mode enabled parameter data type
WakeupDisplayOnNotificationEnabled
[%s]:[%s] - Invalid DEVICE_PREFERENCES WAKEUP_DISPLAY_ON_NOTIFY_ENABLED parameter data type
Invalid Device preferences Object Wakeup Display On Notification enabled parameter data type
LocalIPAddress
[%s]:[%s] - Invalid DEVICE PREFERENCE LOCAL IP ADDRESS parameter data type
Invalid Device preference object local IP address parameter data type
[%s]:[%s] - Invalid Preferences->DeviceName:(%s) length should be less than %d
Invalid Preferences->DeviceName:(%s) length should be less than %d
[%s]:[%s] - Invalid Preferences->DeviceName parameter data type
Invalid Preferences->DeviceName parameter data type
EthernetEnabled
[%s]:[%s] - Invalid DEVICE_PREFERENCES Enable Ethernet parameter data type
Invalid Device preferences Object Enable Ethernet  parameter data type
CPERebootEnabled
[%s]:[%s] - %s - Preferences->CPERebootEnabled DataTypeError
Preferences->CPERebootEnabled DataTypeError
CPERebootDuration
[%s]:[%s] - %s - Preferences->CPERebootDuration DataTypeError
Preferences->CPERebootDuration DataTypeError
CPERebootTime
[%s]:[%s] - %s - Preferences->CPERebootRebootTime DataTypeError
Preferences->CPERebootRebootTime DataTypeError
CPERebootScheduledDay
[%s]:[%s] - %s - Preferences->CPERebootScheduledDay DataTypeError
Preferences->CPERebootScheduleDay DataTypeError
USBModePreferences
AudioPreferences
[%s]:[%s] - %s - NO Preferences Object in the JSON data
sys_getPowerSaveSettings
sys_getUniversalChargingSettings
insg_mqtt_get_cpe_scheduler_data
[%s]:[%s] - %s - deviceui_get_display_setting_enabled failed, returned error code %d
[%s]:[%s] - %s - sys_getHWFactoryResetEnabled failed, returned error code %d, try sysintcli getHWFactoryResetEnabled from command line
[%s]:[%s] - %s - sys_getEthernetEnabled failed, returned error code %d, try sysintcli getEthernetEnabled from command line
[%s]:[%s] - %s - sys_getUSBTetheringEnabled failed, returned error code %d, try sysintcli getUSBTetheringEnabled from command line
[%s]:[%s] - %s - usb mode settings is %d 
[%s]:[%s] - %s sys_getEnableWifiWhileTethered failed, returned error code %d, try sysintcli getEnableWifiWhileTethered from command line
[%s]:[%s] - %s wifi enable while tethering %d
"Internet access via USB and Wifi"
"Internet access via USB only"
"USB Charging"
[%s]:[%s] - %s - deviceui_get_usb_connection_prompt_enabled failed, returned error code %d, try devui_cli get_usb_connection_prompt_enabled from command line
sys_getLEDEnabled
deviceui_get_notification_display_wakeup_setting_enabled
sys_getUIStealthModeEnabled
UCStatus
[%s]:[%s] - %s - battery percentage is %d 
[%s]:[%s] -  sys_getBatteryStatus() failed,  returned error code %d, try sysint_cli getBatteryStatus from command line
sys_getUniversalChargingStatus
[%s]:[%s] - %s - universal charging status is %d 
"Turned off"
"Available"
"Charging"
"Not available (low battery)"
sys_getAudioAlertsEnabled
usbMassStorageFailure
simChange
"English"
"Espanol"
"Italiano"
"Deutsch"
"Eestlane"
"Finnish"
"Japanese"
"mm/dd/yyyy"
"dd/mm/yyyy"
Temperature
"fahrenheit"
"celsius"
"meters"
"3,234.00"
"3.234,00"
[%s]:[%s] - %s - CPE Reboot Schedule Days not configured
[%s]:[%s] - %s - Preferences Parameter Not Available[%s]
[%s]:[%s] - %s - tok count: %d
blowfish
aes128gcm
aes192gcm
aes256gcm
aes128gmac
aes192gmac
aes256gmac
modp1024
modp1536
modp2048
modp3072
modp4096
modp6144
modp8192
19(ecp256)
20(ecp384)
modp2048s256
sys_getIPSECVPNSettings
[%s]:[%s] - %s - BEIGN 
sys_setIPSECVPNStatus : set IPSECVPN Status enable failed.
[%s]:[%s] - %s - Tunnel Infomation TunnelName with Index [%d] : %s
[%s]:[%s] - %s -aftercopy Modified TunnelName with Index[%d]:%s 
sys_setIPSECVPNSettings
sys_setIPSECVPNSettings : set IPSEC VPN settings failed.
[%s]:[%s] - %s - Deleted-[%d] Tunnel Entry successfully 
[%s]:[%s] - %s - sys_clearIpsecVPNConfigSettings failed with error code: %d for server-[%d] 
[%s]:[%s] - %s - sys_getIPSECVPNSettings failed with error code: %d for server-[%d]
[%s]:[%s] - IPSecVPNStatus Enabled value is invalid
IPSecVPNStatus Enabled value is invalid
[%s]:[%s] - IPSecVPN Tunnelname is Should not be empry or must be in ASCII range:32-126 for index:%d
IPSecVPN Tunnelname should not be empty or must be in ASCII range: 32-126 for index:%d
[%s]:[%s] - Check the Tunnelname wheather exiting in IPSecVPN CurrentList or not:%d
[%s]:[%s] - IPSecVPN Updated TunnelName should not empty or not more than 32 charactors:%d
IPSecVPN Updated TunnelName should not empty or not more than 32 charactors for index: %d
[%s]:[%s] - IPSecVPN Tunnelname is Should must be in ASCII range: 32-126 for index: %d
IPSecVPN Tunnelname must be in ASCII range: 32-126 for index: %d
[%s]:[%s] - IPSecVPN Duplicate Updated Tunnel Name not allowed for index: %d and index
IPSecVPN Duplicate Updated Tunnel Name not allowed for index: %d == %d
[%s]:[%s] - IPSecVPN Duplicate Tunnel Name not allowed for index: %d and index
IPSecVPN Duplicate Tunnel Name not allowed for index: %d == %d
[%s]:[%s] - Invalid IPSecVPN client's URL/IP address/Local ID length parameter
Invalid IPSecVPN client's URL/IP address/Local ID length parameter value
[%s]:[%s] - Invalid IPSecVPN Server URL/IP address/Remote ID length parameter
Invalid IPSecVPN Server URL/IP address/ Remote ID length parameter value
[%s]:[%s] - IPSecVPN local IP address is invalid for index: %d
IPSecVPN local IP address is invalid for index: %d
[%s]:[%s] - %s - IPSecVPN remote IP address is invalid for index: %d
IPSecVPN remote IP address is invalid for index: %d
[%s]:[%s] - IPSecVPN local IP address and remote IP addess should not be same for index: %d
IPSecVPN local IP address and remote IP addess should not be same for index: %d
[%s]:[%s] - Invalid IPSecVPN local presharedkey length parameter
Invalid IPSecVPN local presharedkey length parameter value
[%s]:[%s] - Invalid IPSec Local Public Certificate name length parameter
Invalid IPSecVPN IPSec Local Public Certificate name length parameter value
[%s]:[%s] - IPSecVPN Duplicate Local Public Certificate name not allowed for index: %d and index
IPSecVPN Duplicate Local Public Certificate name not allowed for index: %d == %d
[%s]:[%s] - Invalid IPSec Local Public Certificate Password length parameter
Invalid IPSecVPN IPSec Local Public Certificate Password length parameter value
[%s]:[%s] - Invalid IPSecVPN Remote Pre-sharedkey length parameter
Invalid IPSecVPN Remote Pre-sharedkey length parameter value
[%s]:[%s] - Invalid IPSecVPN dpd delay parameter range
Invalid IPSecVPN dpd delay parameter range
[%s]:[%s] - Invalid IPSecVPN dpd timeout parameter range
Invalid IPSecVPN dpd timeout parameter range
[%s]:[%s] - IPSecVPN Object validation failed
[%s]:[%s] - Invalid IPSec Events Current Index : %d and Tunnelname : %s ipsec_event_data->tun_idx : %d
[%s]:[%s] - %s - send info connection_state=%d failure_reason=%d tunnel_name=%s
[%s]:[%s] - %s - recieved info IPSecEvent  connection_state=%d failure_reason=%d tunnel_name=%s
[%s]:[%s] - %s - elements_in_a=%d elements_in_z=%d elements_in_b=%d elements_in_c=%d
[%s]:[%s] - Invalid IPSecVPN List Count =%d, but received count is:%d
Invalid IPSecVPN List Count, count level is exceeded.
AutoStart
[%s]:[%s] - Invalid IPSecVPN server autostart parameter data type
Invalid IPSecVPN server autostrat parameter data type
[%s]:[%s] - Invalid IPSecVPN connection enabled parameter data type
Invalid IPSecVPN connection enabled parameter data type
TunnelName
[%s]:[%s] - Invalid IPSecVPN Tunnel name length parameter
Invalid IPSecVPN Tunnel name length parameter value
[%s]:[%s] - Invalid IPSecVPN Tunnel name parameter
Invalid IPSecVPN Tunnel name parameter value
UpdatedTunnelName
[%s]:[%s] - Invalid IPSecVPN Updated Tunnel name parameter
Invalid IPSecVPN Updated Tunnel name parameter value
AnonymousMode
[%s]:[%s] - Invalid IPSecVPN anonymous mode parameter data type
Invalid IPSecVPN anonymous mode parameter data type
LeftFirewallEnabled
[%s]:[%s] - Invalid IPSecVPN Left Firewall Enabled parameter data type
Invalid IPSecVPN Left Firewall Enabled parameter data type
[%s]:[%s] - Invalid IPSecVPN client's URL/IP address/local ID  parameter
Invalid IPSecVPN client's URL/IP address/local ID  parameter value
RemoteID
[%s]:[%s] - Invalid IPSec server's URL/IP address/Remote ID parameter value
Invalid IPSecVPN IPSec server's URL/IP address/Remote ID parameter value
LocalAuth
[%s]:[%s] - Invalid IPSecVPN local authentication type parameter data type
Invalid IPSecVPN local authentication type parameter data type
LocalPSK
[%s]:[%s] - Invalid IPSecVPN local presharedkey parameter
Invalid IPSecVPN local presharedkey parameter value
CertFileName
[%s]:[%s] - Invalid IPSecVPN URL  parameter
Invalid IPSecVPN URL parameter value
CertPasswd
[%s]:[%s] - Invalid IPSecVPN local password parameter
Invalid IPSecVPN local password parameter value
RemoteAuth
[%s]:[%s] - Invalid IPSecVPN remote authentication type parameter data type
Invalid IPSecVPN remote authentication type parameter data type
RemotePSK
[%s]:[%s] - Invalid IPSecVPN remote presharedkey parameter
Invalid IPSecVPN remote presharedkey parameter value
[%s]:[%s] - Invalid IPSec tunnel local IP address parameter
Invalid IPSecVPN IPSec tunnel local IP address parameter value
LocalSubnetMask
[%s]:[%s] - Invalid IPSec tunnel local subnet parameter
Invalid IPSecVPN IPSec tunnel local subnet parameter value
RemoteIP
[%s]:[%s] - Invalid IPSec tunnel remote IP address parameter
Invalid IPSecVPN IPSec tunnel remote IP address parameter value
RemoteSubnetMask
[%s]:[%s] - Invalid IPSec tunnel remote subnet parameter
Invalid IPSecVPN IPSec tunnel remote subnet parameter value
IKEPhase1KeyLifetime
[%s]:[%s] - Invalid IKE key lifetime in seconds for phase1 parameter
Invalid IPSecVPN IKE key lifetime in seconds for phase1 parameter value
[%s]:[%s] - Invalid IPSecVPN IKE key lifetime in seconds parameter data type
Invalid IPSecVPN IKE key lifetime in seconds parameter data type
IKEPhase1Encryption
[%s]:[%s] - Invalid IPSecVPN IKE Phase1 Encryption algorithms aes256 parameter data type
Invalid IPSecVPN IKE Phase1 Encryption algorithms aes256 parameter data type
[%s]:[%s] - Invalid IPSecVPN IKE Phase1 Encryption algorithms aes128 parameter data type
Invalid IPSecVPN IKE Phase1 Encryption algorithms aes128 parameter data type
[%s]:[%s] - Invalid IPSecVPN IKE Phase1 Encryption algorithms des parameter data type
Invalid IPSecVPN IKE Phase1 Encryption algorithms des parameter data type
Blowfish
[%s]:[%s] - Invalid IPSecVPN IKE Phase1 Encryption algorithms des3 parameter data type
Invalid IPSecVPN IKE Phase1 Encryption algorithms des3 parameter data type
[%s]:[%s] - Invalid IPSecVPN IKE Phase1 Encryption algorithms blowfish parameter data type
Invalid IPSecVPN IKE Phase1 Encryption algorithms blowfish parameter data type
[%s]:[%s] - Invalid IPSecVPN IKE Phase1 Encryption algorithms cast parameter data type
Invalid IPSecVPN IKE Phase1 Encryption algorithms cast parameter data type
[%s]:[%s] - Invalid IPSecVPN IKE Phase1 Encryption algorithms parameter data type
Invalid IPSecVPN IKE Phase1 Encryption algorithms parameter data type
IKEPhase1Hash
[%s]:[%s] - Invalid IPSecVPN IKE Phase1 Hash algorithms md5 parameter data type
Invalid IPSecVPN IKE Phase1 Hash algorithms md5 parameter data type
SHA2_256
[%s]:[%s] - Invalid IPSecVPN IKE Phase1 Hash algorithms sha1 parameter data type
Invalid IPSecVPN IKE Phase1 Hash algorithms sha1 parameter data type
SHA2_384
[%s]:[%s] - Invalid IPSecVPN IKE Phase1 Hash algorithms sha2_256 parameter data type
Invalid IPSecVPN IKE Phase1 Hash algorithms sha2_256 parameter data type
SHA2_512
[%s]:[%s] - Invalid IPSecVPN IKE Phase1 Hash algorithms sha2_384 parameter data type
Invalid IPSecVPN IKE Phase1 Hash algorithms sha2_384 parameter data type
[%s]:[%s] - Invalid IPSecVPN IKE Phase1 Hash algorithms sha2_512 parameter data type
Invalid IPSecVPN IKE Phase1 Hash algorithms sha2_512 parameter data type
[%s]:[%s] - Invalid IPSecVPN IKE Phase1 Hash algorithms parameter data type
Invalid IPSecVPN IKE Phase1 Hash algorithms parameter data type
IKEPhase1DHGroup
[%s]:[%s] - Invalid IPSecVPN IKE Phase1 DH-GROUP algorithms modp768 parameter data type
Invalid IPSecVPN IKE Phase1 DH-GROUP algorithms modp768 parameter data type
[%s]:[%s] - Invalid IPSecVPN IKE Phase1 DH-GROUP algorithms modp1024 parameter data type
Invalid IPSecVPN IKE Phase1 DH-GROUP algorithms modp1024 parameter data type
[%s]:[%s] - Invalid IPSecVPN IKE Phase1 DH-GROUP algorithms modp1536 parameter data type
Invalid IPSecVPN IKE Phase1 DH-GROUP algorithms modp1536 parameter data type
[%s]:[%s] - Invalid IPSecVPN IKE Phase1 DH-GROUP algorithms modp2048 parameter data type
Invalid IPSecVPN IKE Phase1 DH-GROUP algorithms modp2048 parameter data type
[%s]:[%s] - Invalid IPSecVPN IKE Phase1 DH-GROUP algorithms modp3072 parameter data type
Invalid IPSecVPN IKE Phase1 DH-GROUP algorithms modp3072 parameter data type
[%s]:[%s] - Invalid IPSecVPN IKE Phase1 DH-GROUP algorithms modp4096 parameter data type
Invalid IPSecVPN IKE Phase1 DH-GROUP algorithms modp4096 parameter data type
[%s]:[%s] - Invalid IPSecVPN IKE Phase1 DH-GROUP algorithms ecp256 parameter data type
Invalid IPSecVPN IKE Phase1 DH-GROUP algorithms ecp256 parameter data type
[%s]:[%s] - Invalid IPSecVPN IKE Phase1 DH-GROUP algorithms ecp384 parameter data type
Invalid IPSecVPN IKE Phase1 DH-GROUP algorithms ecp384 parameter data type
[%s]:[%s] - Invalid IPSecVPN IKE Phase1 DH-GROUP algorithms modp2048s256 parameter data type
Invalid IPSecVPN IKE Phase1 DH-GROUP algorithms modp2048s256 parameter data type
[%s]:[%s] - Invalid IPSecVPN IKE Phase1 DH-GROUP algorithms parameter data type
Invalid IPSecVPN IKE Phase1 DH-GROUP algorithms parameter data type
IKEPhase2KeyLifetime
[%s]:[%s] - Invalid Auth key lifetime in seconds parameter
Invalid IPSecVPN Auth key lifetime in seconds parameter value
[%s]:[%s] - Invalid IPSecVPN Auth Key lifetime in seconds parameter data type
Invalid IPSecVPN Auth Key lifetime in seconds parameter data type
IKEPhase2Encryption
[%s]:[%s] - Invalid IPSecVPN IKE Phase2 Encryption algorithms aes256 parameter data type
Invalid IPSecVPN IKE Phase2 Encryption algorithms aes256 parameter data type
AES128GCM
[%s]:[%s] - Invalid IPSecVPN IKE Phase2 Encryption algorithms aes128 parameter data type
Invalid IPSecVPN IKE Phase2 Encryption algorithms aes128 parameter data type
AES192GCM
[%s]:[%s] - Invalid IPSecVPN IKE Phase2 Encryption algorithms aes128gcm64 parameter data type
Invalid IPSecVPN IKE Phase2 Encryption algorithms aes128gcm64 parameter data type
AES256GCM
[%s]:[%s] - Invalid IPSecVPN IKE Phase2 Encryption algorithms aes192gcm64 parameter data type
Invalid IPSecVPN IKE Phase2 Encryption algorithms aes192gcm64 parameter data type
AES128GMAC
[%s]:[%s] - Invalid IPSecVPN IKE Phase2 Encryption algorithms aes256gcm64 parameter data type
Invalid IPSecVPN IKE Phase2 Encryption algorithms  aes256gcm64 data type
AES192GMAC
[%s]:[%s] - Invalid IPSecVPN IKE Phase2 Encryption algorithms aes128gmac parameter data type
Invalid IPSecVPN IKE Phase2 Encryption algorithms aes128gmac parameter data type
AES256GMAC
[%s]:[%s] - Invalid IPSecVPN IKE Phase2 Encryption algorithms aes192gmac parameter data type
Invalid IPSecVPN IKE Phase2 Encryption algorithms aes192gmac parameter data type
[%s]:[%s] - Invalid IPSecVPN IKE Phase2 Encryption algorithms aes256gmac parameter data type
Invalid IPSecVPN IKE Phase2 Encryption algorithms aes256gmac parameter data type
[%s]:[%s] - Invalid IPSecVPN IKE Phase2 Encryption algorithms parameter data type
Invalid IPSecVPN IKE Phase2 Encryption algorithms parameter data type
IKEPhase2Hash
[%s]:[%s] - Invalid IPSecVPN IKE Phase2 Hash algorithms md5 parameter data type
Invalid IPSecVPN IKE Phase2 Hash algorithms md5 parameter data type
[%s]:[%s] - Invalid IPSecVPN IKE Phase2 Hash algorithms sha1 parameter data type
Invalid IPSecVPN IKE Phase2 Hash algorithms sha1 parameter data type
[%s]:[%s] - Invalid IPSecVPN IKE Phase2 Hash algorithms sha2_256 parameter data type
Invalid IPSecVPN IKE Phase2 Hash algorithms sha2_256 parameter data type
[%s]:[%s] - Invalid IPSecVPN IKE Phase2 Hash algorithms sha2_384 parameter data type
Invalid IPSecVPN IKE Phase2 Hash algorithms sha2_384 parameter data type
[%s]:[%s] - Invalid IPSecVPN IKE Phase2 Hash algorithms sha2_512 parameter data type
Invalid IPSecVPN IKE Phase2 Hash algorithms sha2_512 parameter data type
[%s]:[%s] - Invalid IPSecVPN IKE Phase2 Hash algorithms parameter data type
Invalid IPSecVPN IKE Phase2 Hash algorithms parameter data type
IKEPhase2DHGroup
[%s]:[%s] - Invalid IPSecVPN IKE Phase2 DH-GROUP algorithms modp768 parameter data type
Invalid IPSecVPN IKE Phase2 DH-GROUP algorithms modp768 parameter data type
[%s]:[%s] - Invalid IPSecVPN IKE Phase2 DH-GROUP algorithms modp1024 parameter data type
Invalid IPSecVPN IKE Phase2 DH-GROUP algorithms modp1024 parameter data type
[%s]:[%s] - Invalid IPSecVPN IKE Phase2 DH-GROUP algorithms modp1536 parameter data type
Invalid IPSecVPN IKE Phase2 DH-GROUP algorithms modp1536 parameter data type
[%s]:[%s] - Invalid IPSecVPN IKE Phase2 DH-GROUP algorithms modp2048 parameter data type
Invalid IPSecVPN IKE Phase2 DH-GROUP algorithms modp2048 parameter data type
[%s]:[%s] - Invalid IPSecVPN IKE Phase2 DH-GROUP algorithms modp3072 parameter data type
Invalid IPSecVPN IKE Phase2 DH-GROUP algorithms modp3072 parameter data type
[%s]:[%s] - Invalid IPSecVPN IKE Phase2 DH-GROUP algorithms modp4096 parameter data type
Invalid IPSecVPN IKE Phase2 DH-GROUP algorithms modp4096 parameter data type
[%s]:[%s] - Invalid IPSecVPN IKE Phase2 DH-GROUP algorithms ecp256 parameter data type
Invalid IPSecVPN IKE Phase2 DH-GROUP algorithms ecp256 parameter data type
[%s]:[%s] - Invalid IPSecVPN IKE Phase2 DH-GROUP algorithms ecp384 parameter data type
Invalid IPSecVPN IKE Phase2 DH-GROUP algorithms ecp384 parameter data type
[%s]:[%s] - Invalid IPSecVPN IKE Phase2 DH-GROUP algorithms modp2048s256 parameter data type
Invalid IPSecVPN IKE Phase2 Hash algorithms modp2048s256 parameter data type
[%s]:[%s] - Invalid IPSecVPN IKE Phase2 DH-GROUP algorithms parameter data type
Invalid IPSecVPN IKE Phase2 DH-GROUP algorithms parameter data type
EnableDPD
[%s]:[%s] - Invalid IPSecVPN dpd enabled parameter data type
Invalid IPSecVPN dpd enabled parameter data type
DPDAction
[%s]:[%s] - Invalid IPSecVPN server dpd action parameter data type
Invalid IPSecVPN server dpd action parameter data type
DPDDelay
[%s]:[%s] - Invalid IPSecVPN dpd delay parameter data type
Invalid IPSecVPN dpd delay parameter data type
DPDTimeout
[%s]:[%s] - Invalid IPSecVPN dpd timeout parameter data type
Invalid IPSecVPN dpd timeout parameter data type
[%s]:[%s] - Invalid IPSecVPN Delete Parameter data type
Invalid IPSecVPN Delete parameter data type
[%s]:[%s] - %s Local AuthType=%d
/opt/nvtl/data/vpn/ipsec/
[%s]:[%s] - %s Local CertType=%d CertFilename=%s
12345678
EnableIPSecVPN
[%s]:[%s] - Invalid IPSecVPN Enabled parameter data type
Invalid IPSecVPN Enabled parameter data type
VPNTunnels
[%s]:[%s] - Invalid IPSec VPN Servers parameter data type
Invalid IPSec VPN Servers parameter data type
[%s]:[%s] - %s - NO IPSecVPN Settings Object in the JSON data
tunnel_conn_status
tunnel_name
connection_state
sys_getVpnConnectionStats
sys_getIPSECVPNStatus
[%s]:[%s] - %s - ike_msg phase 1 algs :: [%d]== %s
[%s]:[%s] - %s - esp_msg phase 2 algs :: [%d]== %s
CertBase64
int ConfigurationJSONParser::handleManualDNSSettingsInfo(yajl_val, context_t*)
int ConfigurationJSONParser::handleFirewallSettingsInfo(yajl_val, context_t*)
sys_mac_filter_device_t* checkDeviceMACinList(sys_mac_filter_device_t*, int, char*)
int ConfigurationJSONParser::handleMacfilterSettingsInfo(yajl_val, context_t*)
int ConfigurationJSONParser::handleLANSettingsInfo(yajl_val, context_t*)
int ConfigurationJSONParser::handleGPSSettingsInfo(yajl_val, context_t*)
int ConfigurationJSONParser::handleGPSRemoteReportingOptions(yajl_val, context_t*, sys_gps_remote_nmea_config_t*)
int ConfigurationJSONParser::handleGPSRemoteServers(yajl_val, context_t*)
int ConfigurationJSONParser::handleGPSRemoteSettingsInfo(yajl_val, context_t*)
int ConfigurationJSONParser::handleLogsInfo(yajl_val, context_t*)
int ConfigurationJSONParser::handleBlockedDevicesInfo(yajl_val, context_t*)
int ConfigurationJSONParser::handleWhiteListedDevicesInfo(yajl_val, context_t*)
int ConfigurationJSONParser::handleWiFiNetworkSettingsInfo(yajl_val, context_t*)
int ConfigurationJSONParser::handleWiFiGuestNetworkSettingsInfo(yajl_val, context_t*)
int ConfigurationJSONParser::handleWiFiAdvancedSettingsInfo(yajl_val, context_t*)
int ConfigurationJSONParser::handleAdminPasswordSettingsInfo(yajl_val, context_t*)
int ConfigurationJSONParser::handlePortFilterCustomApps(yajl_val, context_t*)
int ConfigurationJSONParser::handlePortForwardCustomApps(yajl_val, context_t*)
int ConfigurationJSONParser::handleMobileNetworkSettingsInfo(yajl_val, context_t*)
int ConfigurationJSONParser::handlePortFilteringSettingsInfo(yajl_val, context_t*)
int ConfigurationJSONParser::handlePortForwardingSettingsInfo(yajl_val, context_t*)
int ConfigurationJSONParser::handleReservedIPList(yajl_val, context_t*)
int ConfigurationJSONParser::handleReservedIPAddressInfo(yajl_val, context_t*)
int ConfigurationJSONParser::handleMiFiSharingTopLevelFolder(yajl_val, context_t*)
int ConfigurationJSONParser::handleMiFiSharingSettingsInfo(yajl_val, context_t*)
int ConfigurationJSONParser::handleIpptSettingsInfo(yajl_val, context_t*)
int ConfigurationJSONParser::handleGPSLocalReportingOptions(yajl_val, context_t*, sys_gps_local_nmea_config_t*)
int ConfigurationJSONParser::handleLocalGpsSettings(yajl_val, context_t*)
int ConfigurationJSONParser::handleMotionDetectionInfo(yajl_val, context_t*)
int ConfigurationJSONParser::handleBrakingDriverBehaviorList(yajl_val, context_t*)
int ConfigurationJSONParser::handleAccelerationDriverBehaviorList(yajl_val, context_t*)
int ConfigurationJSONParser::handleRightTurnDriverBehaviorList(yajl_val, context_t*)
int ConfigurationJSONParser::handleLeftTurnDriverBehaviorList(yajl_val, context_t*)
int ConfigurationJSONParser::handleVerticalDriverBehaviorList(yajl_val, context_t*)
int ConfigurationJSONParser::handleMagnitudeDriverBehaviorList(yajl_val, context_t*)
int ConfigurationJSONParser::handleDriverBehavior(yajl_val, context_t*)
int ConfigurationJSONParser::handleAccelerometerSettingsInfo(yajl_val, context_t*)
int ConfigurationJSONParser::handleUSBSerialSettingsInfo(yajl_val, context_t*)
int ConfigurationJSONParser::handleSoftwareSettingsInfo(yajl_val, context_t*)
int ConfigurationJSONParser::handleSimManagementSettingsInfo(yajl_val, context_t*)
int ConfigurationJSONParser::handleSimConfigurationsSettingsInfo(yajl_val, context_t*)
int ConfigurationJSONParser::handleDeviceAgentInfo(yajl_val, context_t*)
int ConfigurationJSONParser::handleWanSettingsInfo(yajl_val, context_t*)
int ConfigurationJSONParser::handleGPIOSettingsInfo(yajl_val, context_t*)
int ConfigurationJSONParser::handleVpnSettingsInfo(yajl_val, context_t*)
int ConfigurationJSONParser::handleCompleteJSONData(yajl_val, context_t*)
int ConfigurationJSONParser::ProcessJSONData(const string&)
int ConfigurationJSONParser::ProcessActionData(std::__cxx11::string&)
23ConfigurationJSONParser
int ConfigurationJSONParser::handleAccessControlEntryInfo(const char*, yajl_val, context_t*)
bool ConfigurationJSONParser::IsACLExists(const string&)
int ConfigurationJSONParser::SetACLSettings(const string&)
int context_push(context_t*, yajl_val)
int object_add_keyval(context_t*, yajl_val, char*, yajl_val)
int array_add_value(context_t*, yajl_val, yajl_val)
int context_add_value(context_t*, yajl_val)
/Root/Config/node()
/Root/node()[name() != "Config"]
void ConfigurationAgent::GetGoldenRecordResponse(Node*, std::__cxx11::string&)
int ConfigurationAgent::GetActiveSimSlot()
sys_sim_mgr_info_list_t* ConfigurationAgent::GetAllSimSlotInfo()
char* ConfigurationAgent::GetSimIMSI()
char* ConfigurationAgent::GetSimICCID()
char* ConfigurationAgent::GetCurrentEthernetMACAddress()
config_du_setting_t* ConfigurationAgent::GetDataUsageSettingsInfo()
int ConfigurationAgent::ValidateDataUsageSettingsInfoObj()
int ConfigurationAgent::SetDataUsageSettingsInfo()
int ConfigurationAgent::SetDataUsageLevelEventInfo(config_du_level_data_t*)
int handleInterfaceDataUsageSettings(yajl_val, config_du_setting_t*, int&)
void ConfigurationAgent::GetDataUsageEventsResponse(Node*, std::__cxx11::string&)
int ConfigurationJSONParser::handleDataUsageSettingsInfo(yajl_val, context_t*)
int GetDataUsageInterfaceResponse(std::vector<Node*>, dua_iface_type_e*, dua_iface_id_t*, int, std::__cxx11::string&)
void ConfigurationAgent::GetDataUsageSettingsResponse(Node*, std::__cxx11::string&)
ConfigurationAgentPreferences::ConfigurationAgentPreferences()
int ConfigurationAgentPreferences::ResetObjectData()
ConfigurationAgentPreferences::~ConfigurationAgentPreferences()
int ConfigurationAgentPreferences::ValidateDevicePrefencesSettingsObj(std::__cxx11::string&)
int ConfigurationAgentPreferences::SetPreferenceSettings()
int* ConfigurationAgentPreferences::GetAllowPreferencesOnDisplay()
sys_universal_charging_settings_t* ConfigurationAgentPreferences::GetUCAutoOffLevel()
sys_powersave_settings_t* ConfigurationAgentPreferences::GetSleepTime()
sys_powersave_settings_t* ConfigurationAgentPreferences::GetShutDownTime()
int* ConfigurationAgentPreferences::GetLEDEnabled()
int* ConfigurationAgentPreferences::GetStealthModeEnabled()
int* ConfigurationAgentPreferences::GetWakeupDisplayOnNotificationEnabled()
sys_lan_settings_t* ConfigurationAgentPreferences::GetPreferenceLanSettings()
int* ConfigurationAgentPreferences::GetUSBMode()
int* ConfigurationAgentPreferences::GetUSBwifiMode()
int* ConfigurationAgentPreferences::GetUSBModePrompt()
int ConfigurationAgentPreferences::handleUSBModePreferencesInfo(yajl_val, context_t*)
sys_notification_settings_item_t* ConfigurationAgentPreferences::GetAudioAlertSettings()
unsigned int* ConfigurationAgentPreferences::GetAudioAlertSettingsCount()
int* ConfigurationAgentPreferences::GetAudioEnabled()
int ConfigurationAgentPreferences::handleAudioPreferencesInfo(yajl_val, context_t*)
int* ConfigurationAgentPreferences::GetAllowHWReset()
int* ConfigurationAgentPreferences::GetDisplayTimeout()
webui_i18n_settings_t* ConfigurationAgentPreferences::GetDisplaySettings()
int ConfigurationAgentPreferences::handleDisplaySettingInfo(yajl_val, context_t*)
insg_mqtt_cpe_reboot_scheduler_t* ConfigurationAgentPreferences::GetPreferenceRebootSchedulerSettings()
int ConfigurationAgentPreferences::handleDevicePreferencesInfo(yajl_val, context_t*)
void ConfigurationAgentPreferences::GetPreferenceSettingsResponse(Node*, std::__cxx11::string&)
void get_ipsec_algorithms(char*, config_ipsec_algorithms_t*)
sys_ipsec_vpn_data_t* ConfigurationAgent::GetIPSecVPNSettings()
config_ipsec_vpn_data_t* ConfigurationAgent::GetIPSecVPNList()
uint8_t* ConfigurationAgent::GetIPSecVPNEnabled()
int* ConfigurationAgent::GetIPSecVPNListCount()
int ConfigurationAgent::SeIPSECVPNSettingsInfo()
int ConfigurationAgent::ValidateIPSecVPNSettingsObj()
int ConfigurationAgent::SetIPSecEventInfo(config_ipsecvpn_state_info_t*)
std::__cxx11::string set_ipsec_algorithms(config_ipsec_algorithms_t*, int)
int ConfigurationJSONParser::handleIPSecServers(yajl_val, context_t*)
int ConfigurationJSONParser::handleIPSecVPNSettingsInfo(yajl_val, context_t*)
void ConfigurationAgent::GetIPSecResponse(Node*, std::__cxx11::string&)
void ConfigurationAgent::GetIPSecEventResponse(Node*, std::__cxx11::string&)
void ConfigurationAgent::GetIPSecVPNSettingsResponse(Node*, std::__cxx11::string&)
gold 1.16
.shstrtab
.note.gnu.build-id
.gnu.version
.gnu.version_d
.gnu.version_r
.rel.dyn
.rel.plt
.ARM.extab
.ARM.exidx
.eh_frame
.eh_frame_hdr
.fini_array
.init_array
.data.rel.ro
.dynamic
.tm_clone_table
.note.gnu.gold-version
.ARM.attributes
